******************************************************************************
                  TI ARM Linker PC v20.2.4                     
******************************************************************************
>> Linked Thu Dec 12 17:22:41 2024

OUTPUT FILE NAME:   <enet_httpget_tirtos.out>
ENTRY POINT SYMBOL: "_c_int00"  address: 00016f39


MEMORY CONFIGURATION

         name            origin    length      used     unused   attr    fill
----------------------  --------  ---------  --------  --------  ----  --------
  FLASH                 00000000   00100000  0001f130  000e0ed0  R  X
  SRAM                  20000000   00040000  00010484  0002fb7c  RW X


SEGMENT ALLOCATION MAP

run origin  load origin   length   init length attrs members
----------  ----------- ---------- ----------- ----- -------
00000000    00000000    0001f138   0001f138    r-x
  00000000    00000000    0000003c   0000003c    r-- .resetVecs
  00000040    00000040    0001c3c2   0001c3c2    r-x .text
  0001c404    0001c404    0000284a   0000284a    r-- .const
  0001ec50    0001ec50    000004e8   000004e8    r-- .cinit
20000000    20000000    00000360   00000000    rw-
  20000000    20000000    00000360   00000000    rw- .vecs
20000380    20000380    00010128   00000000    rw-
  20000380    20000380    0000eef0   00000000    rw- .bss
  2000f270    2000f270    00000a34   00000000    rw- .data
  2000fca8    2000fca8    00000800   00000000    rw- .stack


SECTION ALLOCATION MAP

 output                                  attributes/
section   page    origin      length       input sections
--------  ----  ----------  ----------   ----------------
.text      0    00000040    0001c3c2     
                  00000040    00000cb8     stk6.aem4f : tcp6in.oem4f (.text:TCP6Input)
                  00000cf8    00000c68                : tcpin.oem4f (.text:TcpInput)
                  00001960    000008b8                : tcpout.oem4f (.text:TcpOutput)
                  00002218    00000898                : tcp6out.oem4f (.text:TCP6Output)
                  00002ab0    00000430     sysbios.aem4f : BIOS.obj (.text:ti_sysbios_family_arm_m3_Hwi_excDumpRegs__I)
                  00002ee0    00000408     stk6.aem4f : ipout.oem4f (.text:IPTxPacket)
                  000032e8    000003e4                : bind6.oem4f (.text:Bind6New)
                  000036cc    000003dc     nettool.aem4f : inetaddr.oem4f (.text:getaddrinfo)
                  00003aa8    000003bc     stk6.aem4f : icmpv6_ndisc.oem4f (.text:ICMPv6RecvRA)
                  00003e64    00000384                : ipin.oem4f (.text:IPRxPacket)
                  000041e8    00000372     nettool.aem4f : dnscomn.oem4f (.text:DNSResolveByName)
                  0000455a    00000002     hal_userled_stub.aem4f : llled.oem4f (.text:LED_TOGGLE)
                  0000455c    0000034c     ti.targets.arm.rtsarm.aem4f : System.oem4f (.text:xdc_runtime_System_doPrint__I)
                  000048a8    00000328     stk6.aem4f : route6.oem4f (.text:Rt6Create)
                  00004bd0    000002fe     nettool.aem4f : dnscomn.oem4f (.text:DNSResolveByAddr)
                  00004ece    00000002     stk6.aem4f : nat.oem4f (.text:NatMsg)
                  00004ed0    000002da     nettool.aem4f : dnscomn.oem4f (.text:DNSResolveByNS)
                  000051aa    00000002     os.aem4f : task.oem4f (.text:_TaskInit)
                  000051ac    000002ac     stk6.aem4f : sock6.oem4f (.text:Sock6Connect)
                  00005458    00000284                : sock.oem4f (.text:SockSet)
                  000056dc    00000270     nettool.aem4f : dnsclnt.oem4f (.text:DNSResolve)
                  0000594c    0000026c     httpget.obj (.text:httpTask)
                  00005bb8    00000254     stk6.aem4f : lli6.oem4f (.text:LLI6TimerCheck)
                  00005e0c    0000024c                : ipfrag.oem4f (.text:IPReasm)
                  00006058    00000240                : icmpv6_ndisc.oem4f (.text:ICMPv6RecvRedirect)
                  00006298    0000023c                : icmpin.oem4f (.text:ICMPInput)
                  000064d4    00000238                : sock6.oem4f (.text:Sock6Set)
                  0000670c    00000238                : udp.oem4f (.text:UdpInput)
                  00006944    00000218                : icmpv6_ndisc.oem4f (.text:ICMPv6RecvNS)
                  00006b5c    00000204     Boot.aem4f : Boot_sysctl.oem4f (.text:ti_catalog_arm_cortexm4_tiva_ce_Boot_sysCtlClockFreqSetI__I)
                  00006d60    000001f6     stk6.aem4f : sock6.oem4f (.text:Sock6Recv)
                  00006f56    000001f4                : sock.oem4f (.text:SockRecv)
                  0000714a    00000006                : bind6.oem4f (.text:Bind6SetLifetime)
                  00007150    000001f4     sysbios.aem4f : BIOS.obj (.text:ti_sysbios_family_arm_m3_Hwi_excHandlerMax__I)
                  00007344    000001e1     stk6.aem4f : icmpv6out.oem4f (.text:ICMPv6SendParameterProblem)
                  00007525    00000001     --HOLE-- [fill = 0]
                  00007526    00000002     os.aem4f : task.oem4f (.text:_TaskShutdown)
                  00007528    000001d8     stk6.aem4f : icmpv6out.oem4f (.text:ICMPv6SendDstUnreachable)
                  00007700    000001d8                : ipv6_frag.oem4f (.text:IPv6TxFragPacket)
                  000078d8    000001d1                : icmpv6out.oem4f (.text:ICMPv6SendTimeExceeded)
                  00007aa9    00000001     --HOLE-- [fill = 0]
                  00007aaa    00000002     hal_ser_stub.aem4f : llserstb.oem4f (.text:_llSerialServiceCheck)
                  00007aac    000001c8     stk6.aem4f : ipv6out.oem4f (.text:IPv6TxPacket)
                  00007c74    000001bc                : icmpv6in.oem4f (.text:ICMPv6RxPacket)
                  00007e30    000001bc                : ipv6.oem4f (.text:IPv6IPAddressToString)
                  00007fec    000001b8     drivers_tivaware.aem4f : EMACSnow.oem4f (.text:EMACSnow_NIMUInit)
                  000081a4    000001b0     stk6.aem4f : lliout.oem4f (.text:LLITxIpPacket)
                  00008354    000001ac                : lliin.oem4f (.text:LLIRxPacket)
                  00008500    000001a8                : sock6pcb.oem4f (.text:Sock6PcbBind)
                  000086a8    0000019c     os.aem4f : mem.oem4f (.text:mmAlloc)
                  00008844    00000198     stk6.aem4f : igmp.oem4f (.text:IGMPInput)
                  000089dc    00000198     nettool.aem4f : ipaddr.oem4f (.text:NtGetPublicHost)
                  00008b74    00000194     stk6.aem4f : udp6.oem4f (.text:Udp6Input)
                  00008d08    00000190                : sock.oem4f (.text:SockNew)
                  00008e98    00000178                : bind6.oem4f (.text:Bind6RunDAD)
                  00009010    00000178     netctrl_min.aem4f : netctrl.oem4f (.text:NC_NetStart)
                  00009188    00000174     sysbios.aem4f : BIOS.obj (.text:ti_sysbios_family_arm_m3_Hwi_excBusFault__I)
                  000092fc    00000170     stk6.aem4f : rtc.oem4f (.text:RTCReport)
                  0000946c    0000016c     nettool.aem4f : dnscomn.oem4f (.text:DNSResolveExternal)
                  000095d8    0000016a     stk6.aem4f : sb.oem4f (.text:SBRead)
                  00009742    00000002     hal_ser_stub.aem4f : llserstb.oem4f (.text:_llSerialShutdown)
                  00009744    00000168     stk6.aem4f : sock6.oem4f (.text:Sock6New)
                  000098ac    00000168                : sock6pcb.oem4f (.text:Sock6PcbFind)
                  00009a14    00000166                : icmpv6_ndisc.oem4f (.text:ICMPv6RecvNA)
                  00009b7a    00000006     driverlib.lib : emac.obj (.text:EMACRxDMADescriptorListSet)
                  00009b80    00000164     sysbios.aem4f : BIOS.obj (.text:ti_sysbios_family_arm_m3_Hwi_excUsageFault__I)
                  00009ce4    00000160     stk6.aem4f : sock.oem4f (.text:SockConnect)
                  00009e44    00000158     nettool.aem4f : dhcpmain.oem4f (.text:DHCPOpen)
                  00009f9c    00000154     stk6.aem4f : route6.oem4f (.text:Rt6Find)
                  0000a0f0    00000154                : route6.oem4f (.text:Rt6Free)
                  0000a244    00000154                : sock6pcb.oem4f (.text:Sock6PcbResolve)
                  0000a398    00000150     drivers_tivaware.aem4f : GPIOTiva.oem4f (.text:GPIO_setConfig)
                  0000a4e8    00000150     sysbios.aem4f : BIOS.obj (.text:ti_sysbios_knl_Task_Instance_finalize__E)
                  0000a638    00000148                   : BIOS.obj (.text:ti_sysbios_family_arm_m3_Hwi_excMemFault__I)
                  0000a780    00000144     stk6.aem4f : bind.oem4f (.text:BindNew)
                  0000a8c4    00000144                : icmpv6_ndisc.oem4f (.text:ICMPv6SendNS)
                  0000aa08    00000140                : sock6.oem4f (.text:Sock6Send)
                  0000ab48    00000140                : tcp6.oem4f (.text:TCP6TimeoutCheck)
                  0000ac88    00000140                : tcp.oem4f (.text:TcpTimeoutCheck)
                  0000adc8    0000013c     nettool.aem4f : config.oem4f (.text:CfgAddEntry)
                  0000af04    0000013c     stk6.aem4f : sock6int.oem4f (.text:Sock6Notify)
                  0000b040    0000013c                : sockint.oem4f (.text:SockNotify)
                  0000b17c    0000013c                : sock.oem4f (.text:SockSend)
                  0000b2b8    00000138                : bind6.oem4f (.text:Bind6Free)
                  0000b3f0    00000138     nettool.aem4f : dnspkt.oem4f (.text:DNSReadRecord)
                  0000b528    00000138     stk6.aem4f : tcp6out.oem4f (.text:TCP6GenPacket)
                  0000b660    00000138     sysbios.aem4f : BIOS.obj (.text:ti_sysbios_knl_Semaphore_pend__E)
                  0000b798    00000136     nettool.aem4f : dnspkt.oem4f (.text:DNSGetReply)
                  0000b8ce    00000002     hal_userled_stub.aem4f : llled.oem4f (.text:_llUserLedInit)
                  0000b8d0    00000134     stk6.aem4f : icmp.oem4f (.text:ICMPGenPacket)
                  0000ba04    00000134                : ipv6_frag.oem4f (.text:IPv6FragReasm)
                  0000bb38    00000130     driverlib.lib : gpio.obj (.text:GPIOPadConfigSet)
                  0000bc68    00000130     stk6.aem4f : icmpv6in.oem4f (.text:ICMPv6RecvEchoRequest)
                  0000bd98    00000130     rtsv7M4_T_le_v4SPD16_eabi.lib : strtol.c.obj (.text:strtol)
                  0000bec8    00000128     http_ndk.aem4f : httpcli.oem4f (.text:contentHandler)
                  0000bff0    00000124     stk6.aem4f : sockpcb.oem4f (.text:SockPcbResolve)
                  0000c114    00000124                : udp.oem4f (.text:UdpOutput)
                  0000c238    00000123                : lli6.oem4f (.text:LLI6TxIPPacket)
                  0000c35b    00000001     --HOLE-- [fill = 0]
                  0000c35c    00000122                : sb6.oem4f (.text:SB6Read)
                  0000c47e    00000002     hal_userled_stub.aem4f : llled.oem4f (.text:_llUserLedShutdown)
                  0000c480    00000120     httpget_pem4f.oem4f (.text:ti_ndk_config_Global_stackThread)
                  0000c5a0    00000118     http_ndk.aem4f : httpcli.oem4f (.text:HTTPCli_connect)
                  0000c6b8    00000118     stk6.aem4f : tcpout.oem4f (.text:TcpGenPacket)
                  0000c7d0    00000118     ti.targets.arm.rtsarm.aem4f : Error.oem4f (.text:xdc_runtime_Error_policyDefault__E)
                  0000c8e8    00000114     stk6.aem4f : icmpv6_ndisc.oem4f (.text:ICMPv6SendNA)
                  0000c9fc    00000114                : nimu.oem4f (.text:NIMUIoctl)
                  0000cb10    00000114                : route6.oem4f (.text:Rt6Modify)
                  0000cc24    00000114                : udp6.oem4f (.text:Udp6Output)
                  0000cd38    00000110                : node.oem4f (.text:NodeTreeFree)
                  0000ce48    00000110                : raw.oem4f (.text:RawInput)
                  0000cf58    00000110     rtsv7M4_T_le_v4SPD16_eabi.lib : strtoul.c.obj (.text:strtoul)
                  0000d068    0000010c     stk6.aem4f : rtable.oem4f (.text:RtFind)
                  0000d174    0000010a                : route.oem4f (.text:RtCreate)
                  0000d27e    00000002     rtsv7M4_T_le_v4SPD16_eabi.lib : _lock.c.obj (.text:_nop)
                  0000d280    00000108     drivers_tivaware.aem4f : EMACSnow.oem4f (.text:EMACSnow_emacStart)
                  0000d388    00000108     sysbios.aem4f : BIOS.obj (.text:ti_sysbios_family_arm_lm4_Timer_start__E)
                  0000d490    00000106     http_ndk.aem4f : httpcli.oem4f (.text:HTTPCli_getResponseField)
                  0000d596    00000002     hal_ser_stub.aem4f : llserstb.oem4f (.text:llSerialService)
                  0000d598    00000104     os.aem4f : task.oem4f (.text:llEnter)
                  0000d69c    00000102     nettool.aem4f : dhcppkt.oem4f (.text:dhcpPacketProcess)
                  0000d79e    00000102                   : inetaddr.oem4f (.text:inet_aton)
                  0000d8a0    00000100     stk6.aem4f : igmp.oem4f (.text:IGMPSendReply)
                  0000d9a0    00000100     ti.targets.arm.rtsarm.aem4f : Core-mem.oem4f (.text:xdc_runtime_Core_createObject__I)
                  0000daa0    000000fc     EK_TM4C1294XL.obj (.text:EK_TM4C1294XL_initEMAC)
                  0000db9c    000000fc     stk6.aem4f : mld.oem4f (.text:MLDJoinGroup)
                  0000dc98    000000fc     netctrl_min.aem4f : netctrl.oem4f (.text:NetScheduler)
                  0000dd94    000000fc     stk6.aem4f : raw6.oem4f (.text:Raw6Input)
                  0000de90    000000f8                : pipe.oem4f (.text:PipeRecv)
                  0000df88    000000f8                : raw6.oem4f (.text:Raw6Output)
                  0000e080    000000f8                : sock6pcb.oem4f (.text:Sock6PcbFindRaw)
                  0000e178    000000f8                : udp6.oem4f (.text:processMulticast)
                  0000e270    000000f8     ti.targets.arm.rtsarm.aem4f : Startup.oem4f (.text:xdc_runtime_Startup_startMods__I)
                  0000e368    000000f8     httpget_pem4f.oem4f (.text:xdc_runtime_System_printfExtend__I)
                  0000e460    000000f4     stk6.aem4f : ipv6in.oem4f (.text:IPv6RxPacket)
                  0000e554    000000f4     os.aem4f : task.oem4f (.text:TaskGetEnv)
                  0000e648    000000f4     sysbios.aem4f : m3_Hwi_asm.obj (.text:ti_sysbios_family_arm_m3_Hwi_dispatch__I)
                  0000e73c    00000004     stk6.aem4f : bind.oem4f (.text:BindGetIF)
                  0000e740    000000f4     sysbios.aem4f : BIOS.obj (.text:ti_sysbios_knl_Task_Instance_init__E)
                  0000e834    000000f2     nettool.aem4f : dnspkt.oem4f (.text:DNSWriteRecord)
                  0000e926    000000f2     http_ndk.aem4f : httpcli.oem4f (.text:bufferedRecv)
                  0000ea18    000000f1     nettool.aem4f : inetaddr.oem4f (.text:createAddrInfo)
                  0000eb09    00000001     --HOLE-- [fill = 0]
                  0000eb0a    000000f0     stk6.aem4f : ipv6_frag.oem4f (.text:IPv6FragQEnqueueFrag)
                  0000ebfa    00000002     rtsv7M4_T_le_v4SPD16_eabi.lib : div0.asm.obj (.text)
                  0000ebfc    000000f0     stk6.aem4f : ipv6_frag.oem4f (.text:IPv6ParseFragHdr)
                  0000ecec    000000f0                : lli6.oem4f (.text:LLI6New)
                  0000eddc    000000f0                : lliout.oem4f (.text:LLIGenArpPacket)
                  0000eecc    000000f0                : sock.oem4f (.text:SockClose)
                  0000efbc    000000ec                : lli6.oem4f (.text:LLI6NeighUnreachStateMachine)
                  0000f0a8    000000ec     http_ndk.aem4f : httpcli.oem4f (.text:redirect)
                  0000f194    00000004     stk6.aem4f : bind.oem4f (.text:BindGetNext)
                  0000f198    000000ec     sysbios.aem4f : BIOS.obj (.text:ti_sysbios_knl_Task_postInit__I)
                  0000f284    000000e8     os.aem4f : task.oem4f (.text:TaskSetEnv)
                  0000f36c    000000e6     nettool.aem4f : dnspkt.oem4f (.text:DNSWriteName)
                  0000f452    00000002     httpget_pem4f.oem4f (.text:ti_ndk_config_Global_NetworkClose)
                  0000f454    000000e6     http_ndk.aem4f : httpcli.oem4f (.text:HTTPCli_initSockAddr)
                  0000f53a    000000e4     stk6.aem4f : sock6.oem4f (.text:Sock6Close)
                  0000f61e    00000002     httpget_pem4f.oem4f (.text:ti_ndk_config_Global_NetworkOpen)
                  0000f620    000000e1     stk6.aem4f : nimu.oem4f (.text:NIMUReceivePacket)
                  0000f701    00000001     --HOLE-- [fill = 0]
                  0000f702    00000002     httpget_pem4f.oem4f (.text:ti_sysbios_BIOS_nullFunc__I)
                  0000f704    000000e0     stk6.aem4f : ipv6.oem4f (.text:IPv6DisplayIPAddress)
                  0000f7e4    000000e0                : tcptime.oem4f (.text:TcpTimeoutRexmt)
                  0000f8c4    000000dc                : sb6.oem4f (.text:SB6Write)
                  0000f9a0    000000dc                : sb.oem4f (.text:SBWrite)
                  0000fa7c    000000dc     nettool.aem4f : dhcpsock.oem4f (.text:dhcpSocketOpen)
                  0000fb58    000000dc                   : dhcpsm.oem4f (.text:dhcpState)
                  0000fc34    000000d8     stk6.aem4f : node.oem4f (.text:NodeAdd)
                  0000fd0c    000000d8                : tcp6prot.oem4f (.text:TCP6PrSetOption)
                  0000fde4    000000d8                : tcp6time.oem4f (.text:TCP6TimeoutRexmt)
                  0000febc    000000d8                : tcpprot.oem4f (.text:TcpPrSetOption)
                  0000ff94    000000d4     drivers_tivaware.aem4f : EMACSnow.oem4f (.text:EMACSnow_handleRx)
                  00010068    000000d4     stk6.aem4f : ipv6_exthdrs.oem4f (.text:IPv6ParseHopOptions)
                  0001013c    000000d4                : sockpcb.oem4f (.text:SockPcbBind)
                  00010210    000000d4     sysbios.aem4f : BIOS.obj (.text:ti_sysbios_heaps_HeapMem_alloc__E)
                  000102e4    000000d0     stk6.aem4f : bind6.oem4f (.text:Bind6DADCheck)
                  000103b4    000000d0                : bind6.oem4f (.text:Bind6GetGlobalAddress)
                  00010484    000000cc                : exec.oem4f (.text:ExecOpen)
                  00010550    000000cc                : icmp.oem4f (.text:ICMPSendRtAdv)
                  0001061c    000000cc     nettool.aem4f : dhcpbild.oem4f (.text:dhcpBuildHeader)
                  000106e8    000000cc                   : dhcpsm.oem4f (.text:dhcpIPAdd)
                  000107b4    000000cc                   : dhcppkt.oem4f (.text:dhcpVerifyMessage)
                  00010880    000000cc     ti.targets.arm.rtsarm.aem4f : Core-smem.oem4f (.text:xdc_runtime_Core_constructObject__I)
                  0001094c    000000c8     stk6.aem4f : rawethsock.oem4f (.text:RawEthSockNew)
                  00010a14    000000c8     netctrl_min.aem4f : netsrv.oem4f (.text:SPIpNet)
                  00010adc    000000c8     stk6.aem4f : tcp6time.oem4f (.text:TCP6TimeoutKeep)
                  00010ba4    00000004     http_ndk.aem4f : httpcli.oem4f (.text:HTTPCli_construct)
                  00010ba8    000000c8     sysbios.aem4f : BIOS.obj (.text:ti_sysbios_knl_Task_sleep__E)
                  00010c70    000000c4     drivers_tivaware.aem4f : EMACSnow.oem4f (.text:EMACSnow_InitDMADescriptors)
                  00010d34    000000c4     stk6.aem4f : igmp.oem4f (.text:IGMPJoinHostGroup)
                  00010df8    000000c4     nettool.aem4f : dhcpsm.oem4f (.text:StateBound)
                  00010ebc    000000c4     http_ndk.aem4f : httpcli.oem4f (.text:getChunkedData)
                  00010f80    000000c2     nettool.aem4f : dnspkt.oem4f (.text:DNSReadName)
                  00011042    00000002     httpget_pem4f.oem4f (.text:xdc_runtime_Startup_reset__I)
                  00011044    000000c0     stk6.aem4f : ipv6_exthdrs.oem4f (.text:IPv6ParseExtnHeaders)
                  00011104    000000c0                : sock6.oem4f (.text:joinGroup)
                  000111c4    000000be     nettool.aem4f : dnsclnt.oem4f (.text:DNSGetHostByName)
                  00011282    000000bc     stk6.aem4f : sockpcb.oem4f (.text:SockPcbFind)
                  0001133e    00000002     --HOLE-- [fill = 0]
                  00011340    000000bc                : vlan.oem4f (.text:VLANDeinit)
                  000113fc    00000004     os.aem4f : ossys.oem4f (.text:NDK_vsprintf)
                  00011400    000000bc     sysbios.aem4f : BIOS.obj (.text:ti_sysbios_family_arm_m3_Hwi_excDebugMon__I)
                  000114bc    00000004     stk6.aem4f : node.oem4f (.text:NodeSetRt)
                  000114c0    000000bc     sysbios.aem4f : BIOS.obj (.text:ti_sysbios_family_arm_m3_Hwi_excHardFault__I)
                  0001157c    00000004     stk6.aem4f : rawethsock_prot.oem4f (.text:RawEthSockPrAttach)
                  00011580    000000bc     sysbios.aem4f : BIOS.obj (.text:ti_sysbios_knl_Task_exit__E)
                  0001163c    000000b8     stk6.aem4f : icmpin.oem4f (.text:ICMPRevSrcRoute)
                  000116f4    000000b8                : socket.oem4f (.text:NDK_sendto)
                  000117ac    000000b8                : sock6pcb.oem4f (.text:Sock6PcbConnect)
                  00011864    000000b8                : lli.oem4f (.text:_LLITimeoutCheck)
                  0001191c    000000b4                : sock6int.oem4f (.text:Sock6CreatePacket)
                  000119d0    000000b4                : tcptime.oem4f (.text:TcpTimeoutKeep)
                  00011a84    000000b4     http_ndk.aem4f : httpcli.oem4f (.text:getStatus)
                  00011b38    000000b4     sysbios.aem4f : BIOS.obj (.text:ti_sysbios_knl_Task_checkStacks__E)
                  00011bec    000000b0     stk6.aem4f : ipv6_exthdrs.oem4f (.text:IPv6ParseRoutingHdr)
                  00011c9c    000000b0                : ipv6.oem4f (.text:IPv6StringToIPAddress)
                  00011d4c    000000b0                : rawethsock.oem4f (.text:RawEthSockSet)
                  00011dfc    000000b0                : route6.oem4f (.text:Route6LifetimeMgmt)
                  00011eac    000000ac                : rtable.oem4f (.text:RtTimeoutCheck)
                  00011f58    000000ac     http_ndk.aem4f : httpcli.oem4f (.text:httpProxyTunnel)
                  00012004    00000004     stk6.aem4f : rawethsock_prot.oem4f (.text:RawEthSockPrDetach)
                  00012008    000000ac     sysbios.aem4f : BIOS.obj (.text:ti_sysbios_family_arm_lm4_Timer_enableTiva__I)
                  000120b4    000000aa     stk6.aem4f : icmpv6in.oem4f (.text:ICMPv6SocketErrorInterface)
                  0001215e    000000aa     network_ndk.aem4f : ssock.oem4f (.text:Ssock_send)
                  00012208    000000a8     stk6.aem4f : sockint.oem4f (.text:SockCreatePacket)
                  000122b0    000000a4     sysbios.aem4f : BIOS.obj (.text:ti_sysbios_knl_Task_setPri__E)
                  00012354    000000a0     stk6.aem4f : ip.oem4f (.text:IPGetRoute)
                  000123f4    000000a0                : socket.oem4f (.text:NDK_setsockopt)
                  00012494    000000a0     auto_init.aem4f : auto_init.oem4f (.text)
                  00012534    000000a0     ti.targets.arm.rtsarm.aem4f : Text.oem4f (.text:xdc_runtime_Text_putMod__E)
                  000125d4    0000009e     stk6.aem4f : nimu.oem4f (.text:NIMUAddEthernetHeader)
                  00012672    0000009e     nettool.aem4f : dhcpbild.oem4f (.text:dhcpBuildRequest)
                  00012710    0000009d     httpget.obj (.text:main)
                  000127ad    00000001     --HOLE-- [fill = 0]
                  000127ae    0000009c     rtsv7M4_T_le_v4SPD16_eabi.lib : memcpy_t2.asm.obj (.text)
                  0001284a    00000002     --HOLE-- [fill = 0]
                  0001284c    0000009a     ti.targets.arm.rtsarm.aem4f : Text.oem4f (.text:xdc_runtime_Text_putSite__E)
                  000128e6    00000002     --HOLE-- [fill = 0]
                  000128e8    00000098     EK_TM4C1294XL.obj (.text:EK_TM4C1294XL_initGeneral)
                  00012980    00000098     netctrl_min.aem4f : netctrl.oem4f (.text:NC_SystemOpen)
                  00012a18    00000098                       : netsrv.oem4f (.text:ServiceScan)
                  00012ab0    00000098     Boot.aem4f : Boot.oem4f (.text:ti_catalog_arm_cortexm4_tiva_ce_Boot_sysCtlClockFreqSet__E)
                  00012b48    00000098     sysbios.aem4f : BIOS.obj (.text:ti_sysbios_knl_Task_schedule__I)
                  00012be0    00000094     nettool.aem4f : config.oem4f (.text:CfgRemoveEntry)
                  00012c74    00000094     stk6.aem4f : ipv6.oem4f (.text:IPv6Init)
                  00012d08    00000094     sysbios.aem4f : BIOS.obj (.text:ti_sysbios_family_arm_m3_Hwi_Instance_init__E)
                  00012d9c    00000004     os.aem4f : semaphore.oem4f (.text:SemPend)
                  00012da0    00000094     sysbios.aem4f : BIOS.obj (.text:ti_sysbios_family_arm_m3_Hwi_initNVIC__E)
                  00012e34    00000090     nettool.aem4f : config.oem4f (.text:CfgExecute)
                  00012ec4    00000090     stk6.aem4f : igmp.oem4f (.text:IGMPMsg)
                  00012f54    00000090     os.aem4f : mem.oem4f (.text:mmBulkAlloc)
                  00012fe4    00000090     http_ndk.aem4f : httpcli.oem4f (.text:readLine)
                  00013074    00000004     os.aem4f : semaphore.oem4f (.text:SemPost)
                  00013078    00000090     sysbios.aem4f : BIOS.obj (.text:ti_sysbios_knl_Task_Module_startup__E)
                  00013108    00000090                   : BIOS.obj (.text:ti_sysbios_knl_Task_startCore__E)
                  00013198    0000008e     stk6.aem4f : fileuser.oem4f (.text:fdClose)
                  00013226    0000008c     nettool.aem4f : dnscomn.oem4f (.text:DNSResolveQuery)
                  000132b2    00000002     --HOLE-- [fill = 0]
                  000132b4    0000008c     drivers_tivaware.aem4f : GPIOTiva.oem4f (.text:GPIO_init)
                  00013340    0000008c     stk6.aem4f : ip.oem4f (.text:IPMsg)
                  000133cc    0000008c                : ipv6_frag.oem4f (.text:IPv6FindFragQ)
                  00013458    0000008c     os.aem4f : mem.oem4f (.text:_mmInit)
                  000134e4    0000008c     nettool.aem4f : inetaddr.oem4f (.text:inet_pton)
                  00013570    0000008c     os.aem4f : mem.oem4f (.text:mmInitPage)
                  000135fc    0000008c     sysbios.aem4f : m3_TaskSupport_asm.obj (.text:ti_sysbios_family_arm_m3_TaskSupport_buildTaskStack)
                  00013688    0000008a     netctrl_min.aem4f : netsrv.oem4f (.text:SPRoute)
                  00013712    00000002     --HOLE-- [fill = 0]
                  00013714    00000088     stk6.aem4f : pbm.oem4f (.text:PBM_free)
                  0001379c    00000088     netctrl_min.aem4f : netsrv.oem4f (.text:ServiceSpawn)
                  00013824    00000088     stk6.aem4f : sock6pcb.oem4f (.text:Sock6PcbResolveChain)
                  000138ac    00000088                : sockpcb.oem4f (.text:SockPcbCtlError)
                  00013934    00000087     httpget_pem4f.oem4f (.text:ti_ndk_config_Global_NetworkIPAddr)
                  000139bb    00000001     --HOLE-- [fill = 0]
                  000139bc    00000086     nettool.aem4f : dhcpsm.oem4f (.text:StateRequesting)
                  00013a42    00000002     --HOLE-- [fill = 0]
                  00013a44    00000084                   : config.oem4f (.text:CfgGetEntry)
                  00013ac8    00000084     drivers_tivaware.aem4f : EMACSnow.oem4f (.text:EMACSnow_processPhyInterrupt)
                  00013b4c    00000084     stk6.aem4f : tcp6prot.oem4f (.text:TCP6PrAttach)
                  00013bd0    00000084                : tcpprot.oem4f (.text:TcpPrAttach)
                  00013c54    00000084     os.aem4f : mem.oem4f (.text:mmBulkFree)
                  00013cd8    00000084              : mem.oem4f (.text:mmFree)
                  00013d5c    00000004              : semaphore.oem4f (.text:SemReset)
                  00013d60    00000084     sysbios.aem4f : BIOS.obj (.text:ti_sysbios_family_arm_m3_Hwi_postInit__I)
                  00013de4    00000082     stk6.aem4f : socket.oem4f (.text:NDK_recv)
                  00013e66    00000082                : socket.oem4f (.text:NDK_socket)
                  00013ee8    00000082     nettool.aem4f : dhcpsm.oem4f (.text:StateRenewRebind)
                  00013f6a    00000080                   : dnsclnt.oem4f (.text:DNSGetHostByName2)
                  00013fea    00000002     --HOLE-- [fill = 0]
                  00013fec    00000080     drivers_tivaware.aem4f : EMACSnow.oem4f (.text:EMACSnow_emacStop)
                  0001406c    00000080                            : EMACSnow.oem4f (.text:EMACSnow_processPendingTx)
                  000140ec    00000080     stk6.aem4f : lli.oem4f (.text:LLINew)
                  0001416c    00000080                : socket.oem4f (.text:NDK_send)
                  000141ec    00000080     netctrl_min.aem4f : netsrv.oem4f (.text:NS_BootTask)
                  0001426c    00000080     stk6.aem4f : pbm.oem4f (.text:PBM_alloc)
                  000142ec    00000080                : raw.oem4f (.text:RawOutput)
                  0001436c    0000007c     nettool.aem4f : config.oem4f (.text:CfgGetNextEntry)
                  000143e8    0000007c     drivers_tivaware.aem4f : EMACSnow.oem4f (.text:EMACSnow_hwiIntFxn)
                  00014464    0000007c     stk6.aem4f : igmp.oem4f (.text:IGMPDoMCast)
                  000144e0    0000007c                : igmp.oem4f (.text:IGMPJoin)
                  0001455c    0000007c                : nimu.oem4f (.text:NIMURegister)
                  000145d8    0000007c     httpget.obj (.text:netIPAddrHook)
                  00014654    00000004     network_ndk.aem4f : ssock.oem4f (.text:Ssock_getSocket)
                  00014658    0000007c     sysbios.aem4f : BIOS.obj (.text:ti_sysbios_heaps_HeapMem_free__E)
                  000146d4    0000007a     rtsv7M4_T_le_v4SPD16_eabi.lib : memset_t2.asm.obj (.text)
                  0001474e    00000002     --HOLE-- [fill = 0]
                  00014750    00000078     stk6.aem4f : bind6.oem4f (.text:Bind6LifetimeMgmt)
                  000147c8    00000078     driverlib.lib : emac.obj (.text:EMACInit)
                  00014840    00000078     stk6.aem4f : socket.oem4f (.text:NDK_bind)
                  000148b8    00000078                : socket.oem4f (.text:NDK_connect)
                  00014930    00000078                : sb6.oem4f (.text:SB6New)
                  000149a8    00000078                : tcp6time.oem4f (.text:TCP6XmitTimer)
                  00014a20    00000078                : tcptime.oem4f (.text:TcpXmitTimer)
                  00014a98    00000078                : fileuser.oem4f (.text:fdOpenSession)
                  00014b10    00000078     os.aem4f : task.oem4f (.text:llExit)
                  00014b88    00000076     stk6.aem4f : pipe.oem4f (.text:PipeSend)
                  00014bfe    00000002     --HOLE-- [fill = 0]
                  00014c00    00000076                : tcp6time.oem4f (.text:TCP6TimeoutSackRexmt)
                  00014c76    00000002     --HOLE-- [fill = 0]
                  00014c78    00000075                : tcptime.oem4f (.text:TcpTimeoutSackRexmt)
                  00014ced    00000003     --HOLE-- [fill = 0]
                  00014cf0    00000074                : bind6.oem4f (.text:Bind6Msg)
                  00014d64    00000074                : igmp.oem4f (.text:IGMPLeaveHostGroup)
                  00014dd8    00000074                : nimu.oem4f (.text:NIMUShutdown)
                  00014e4c    00000074                : raweth.oem4f (.text:RawEthRxPacket)
                  00014ec0    00000074                : sock6pcb.oem4f (.text:Sock6CleanPcb)
                  00014f34    00000074                : sockpcb.oem4f (.text:SockPcbConnect)
                  00014fa8    00000074     nettool.aem4f : inetaddr.oem4f (.text:setAddrInfo)
                  0001501c    00000072     os.aem4f : semaphore.oem4f (.text:SemCreateBinary)
                  0001508e    00000002     --HOLE-- [fill = 0]
                  00015090    00000070     stk6.aem4f : exec.oem4f (.text:ExecClose)
                  00015100    00000070     http_ndk.aem4f : httpcli.oem4f (.text:HTTPCli_sendRequest)
                  00015170    00000070     stk6.aem4f : rtable.oem4f (.text:RtFlush)
                  000151e0    00000070     netctrl_min.aem4f : netsrv.oem4f (.text:SPConfig)
                  00015250    00000070     stk6.aem4f : sock6.oem4f (.text:Sock6Shutdown)
                  000152c0    00000070                : sock.oem4f (.text:SockShutdown)
                  00015330    00000070     nettool.aem4f : dhcptags.oem4f (.text:dhcpDecodeType)
                  000153a0    00000070     sysbios.aem4f : BIOS.obj (.text:ti_sysbios_knl_Clock_workFunc__E)
                  00015410    0000006e     nettool.aem4f : dnsclnt.oem4f (.text:IPv6PTRStringToIPAddress)
                  0001547e    00000002     --HOLE-- [fill = 0]
                  00015480    0000006e     stk6.aem4f : rtable.oem4f (.text:RtWalkNext)
                  000154ee    0000006e                : sockpcb.oem4f (.text:SockPcbFindRaw)
                  0001555c    0000006d                : node.oem4f (.text:NodeNew)
                  000155c9    00000003     --HOLE-- [fill = 0]
                  000155cc    0000006d     ti.targets.arm.rtsarm.aem4f : System.oem4f (.text:xdc_runtime_System_formatNum__I)
                  00015639    00000003     --HOLE-- [fill = 0]
                  0001563c    0000006c     os.aem4f : ossys.oem4f (.text:DbgPrintf)
                  000156a8    0000006c     stk6.aem4f : node.oem4f (.text:NodeTreeNew)
                  00015714    0000006c                : raweth.oem4f (.text:RawEthTxPacket)
                  00015780    0000006c                : udp.oem4f (.text:UdpChecksum)
                  000157ec    0000006c     http_ndk.aem4f : httpcli.oem4f (.text:checkContentField)
                  00015858    0000006c     httpget_pem4f.oem4f (.text:ti_ndk_config_ip_init)
                  000158c4    00000004     os.aem4f : task.oem4f (.text:TaskSelf)
                  000158c8    0000006c     sysbios.aem4f : BIOS.obj (.text:ti_sysbios_knl_Swi_restoreHwi__E)
                  00015934    0000006c     ti.targets.arm.rtsarm.aem4f : Error.oem4f (.text:xdc_runtime_Error_print__E)
                  000159a0    0000006c                                 : Memory.oem4f (.text:xdc_runtime_Memory_alloc__E)
                  00015a0c    0000006a     stk6.aem4f : tcp6prot.oem4f (.text:TCP6PrInherit)
                  00015a76    0000006a                : tcpprot.oem4f (.text:TcpPrInherit)
                  00015ae0    00000068                : ipv6_frag.oem4f (.text:IPv6CreateFragQ)
                  00015b48    00000068                : pbm.oem4f (.text:PBM_open)
                  00015bb0    00000068                : sock6int.oem4f (.text:Sock6ValidateRoute)
                  00015c18    00000068                : rtable.oem4f (.text:_RtNodeInsert)
                  00015c80    00000068     rtsv7M4_T_le_v4SPD16_eabi.lib : copy_decompress_lzss.c.obj (.text:decompress:lzss:__TI_decompress_lzss)
                  00015ce8    00000066     stk6.aem4f : sock6.oem4f (.text:leaveGroup)
                  00015d4e    00000066     ti.targets.arm.rtsarm.aem4f : Core-mem.oem4f (.text:xdc_runtime_Core_deleteObject__I)
                  00015db4    00000064     nettool.aem4f : config.oem4f (.text:CfgFree)
                  00015e18    00000064     drivers_tivaware.aem4f : GPIOTiva.oem4f (.text:GPIO_hwiIntFxn)
                  00015e7c    00000064     stk6.aem4f : ipv6_frag.oem4f (.text:IPv6FragMsg)
                  00015ee0    00000064                : pbm.oem4f (.text:PBMQ_enq)
                  00015f44    00000064                : sock6int.oem4f (.text:Sock6SpawnAbort)
                  00015fa8    00000064                : sockint.oem4f (.text:SockSpawnAbort)
                  0001600c    00000064     hal_timer_bios.aem4f : lltimer.oem4f (.text:llTimerTick)
                  00016070    00000064     sysbios.aem4f : BIOS.obj (.text:ti_sysbios_family_arm_lm4_Timer_Module_startup__E)
                  000160d4    00000064     httpget_pem4f.oem4f (.text:ti_sysbios_family_arm_m3_Hwi_create)
                  00016138    00000064     sysbios.aem4f : BIOS.obj (.text:ti_sysbios_family_arm_m3_Hwi_dispatchC__I)
                  0001619c    00000004     os.aem4f : task.oem4f (.text:TaskSetPri)
                  000161a0    00000064     sysbios.aem4f : BIOS.obj (.text:ti_sysbios_knl_Semaphore_post__E)
                  00016204    00000064     stk6.aem4f : lliin.oem4f (.text:updateRtTable)
                  00016268    00000062                : ipin.oem4f (.text:IPRouteIP)
                  000162ca    00000062                : mld.oem4f (.text:MLDLeaveGroup)
                  0001632c    00000062                : sb.oem4f (.text:SBNew)
                  0001638e    00000002     --HOLE-- [fill = 0]
                  00016390    00000060     nettool.aem4f : config.oem4f (.text:CfgGetEntryCnt)
                  000163f0    00000060     stk6.aem4f : file.oem4f (.text:FdWaitEvent)
                  00016450    00000060                : icmpv6_ndisc.oem4f (.text:ICMPv6RecvRS)
                  000164b0    00000060                : nimu.oem4f (.text:NIMUUnregister)
                  00016510    00000060                : node.oem4f (.text:NodeFind)
                  00016570    00000060                : rtc.oem4f (.text:RTCMsg)
                  000165d0    00000060                : route6.oem4f (.text:Rt6FindDefaultRouter)
                  00016630    00000060                : sock6.oem4f (.text:Sock6Disconnect)
                  00016690    00000060                : tcp.oem4f (.text:TcpChecksum)
                  000166f0    00000060     nettool.aem4f : dhcptags.oem4f (.text:dhcpBuildOptions)
                  00016750    00000060     httpget_pem4f.oem4f (.text:ti_ndk_config_Global_serviceReport)
                  000167b0    0000005e     stk6.aem4f : route.oem4f (.text:RtRemove)
                  0001680e    0000005e     nettool.aem4f : dhcpsm.oem4f (.text:StateSelecting)
                  0001686c    0000005e     stk6.aem4f : vlan.oem4f (.text:VLANReceivePacket)
                  000168ca    00000002     --HOLE-- [fill = 0]
                  000168cc    0000005c     nettool.aem4f : config.oem4f (.text:CfgSetExecuteOrder)
                  00016928    0000005c     stk6.aem4f : nimu.oem4f (.text:NIMUIoctlSpecialCmd)
                  00016984    0000005c     netctrl_min.aem4f : netsrv.oem4f (.text:SPService)
                  000169e0    0000005c     httpget_pem4f.oem4f (.text:ti_sysbios_knl_Swi_create)
                  00016a3c    00000004     hal_ser_stub.aem4f : llserstb.oem4f (.text:_llSerialInit)
                  00016a40    0000005c     sysbios.aem4f : BIOS.obj (.text:ti_sysbios_knl_Swi_run__I)
                  00016a9c    00000004     rtsv7M4_T_le_v4SPD16_eabi.lib : exit.c.obj (.text:abort:abort)
                  00016aa0    0000005c     sysbios.aem4f : BIOS.obj (.text:ti_sysbios_knl_Swi_schedule__I)
                  00016afc    0000005c     httpget_pem4f.oem4f (.text:ti_sysbios_knl_Task_create)
                  00016b58    0000005c     sysbios.aem4f : BIOS.obj (.text:ti_sysbios_knl_Task_unblockI__E)
                  00016bb4    0000005b     ti.targets.arm.rtsarm.aem4f : Text.oem4f (.text:xdc_runtime_Text_putLab__E)
                  00016c0f    00000001     --HOLE-- [fill = 0]
                  00016c10    0000005a     stk6.aem4f : ipv6.oem4f (.text:IPv6GetSubnetMaskFromBits)
                  00016c6a    0000005a                : lli6.oem4f (.text:LLI6Update)
                  00016cc4    0000005a                : route.oem4f (.text:RtRedirect)
                  00016d1e    0000005a                : tcpprot.oem4f (.text:TcpValidateMetrics)
                  00016d78    0000005a     nettool.aem4f : dhcpbild.oem4f (.text:dhcpBuildDecline)
                  00016dd2    0000005a     os.aem4f : mem.oem4f (.text:mmCopy)
                  00016e2c    0000005a     httpget_pem4f.oem4f (.text:ti_ndk_config_tcp_init)
                  00016e86    00000002     --HOLE-- [fill = 0]
                  00016e88    00000058     stk6.aem4f : bind6.oem4f (.text:Bind6GetLinkLocalAddress)
                  00016ee0    00000058                : bind.oem4f (.text:BindFree)
                  00016f38    00000058     boot.aem4f : boot.oem4f (.text)
                  00016f90    00000058     driverlib.lib : emac.obj (.text:EMACPHYConfigSet)
                  00016fe8    00000058     rtsv7M4_T_le_v4SPD16_eabi.lib : hostwrite.c.obj (.text:HOSTwrite)
                  00017040    00000058     stk6.aem4f : igmp.oem4f (.text:IGMPTimer)
                  00017098    00000058                : lli6.oem4f (.text:LLI6Find)
                  000170f0    00000058     os.aem4f : semaphore.oem4f (.text:SemCreate)
                  00017148    00000058     sysbios.aem4f : m3_Hwi_asm_switch.obj (.text:ti_sysbios_family_arm_m3_Hwi_initStacks__E)
                  000171a0    00000056     driverlib.lib : gpio.obj (.text:GPIOIntTypeSet)
                  000171f6    00000056     stk6.aem4f : ipv6.oem4f (.text:IPv6Layer4ComputeChecksum)
                  0001724c    00000056     http_ndk.aem4f : httpcli.oem4f (.text:sprsend)
                  000172a2    00000002     --HOLE-- [fill = 0]
                  000172a4    00000054     nettool.aem4f : config.oem4f (.text:CfgEntryDeRef)
                  000172f8    00000054     http_ndk.aem4f : httpcli.oem4f (.text:HTTPCli_sendField)
                  0001734c    00000054     stk6.aem4f : igmp.oem4f (.text:IGMPLeave)
                  000173a0    00000054                : rawethsock_pcb.oem4f (.text:RawEthSockPcbAttach)
                  000173f4    00000054                : sockpcb.oem4f (.text:SockCleanPcb)
                  00017448    00000054                : tcp6time.oem4f (.text:TCP6TimeoutPersist)
                  0001749c    00000054                : tcptime.oem4f (.text:TcpTimeoutPersist)
                  000174f0    00000054                : bind6.oem4f (.text:_Bind6FindByHostInList)
                  00017544    00000054                : bind6.oem4f (.text:_Bind6FindByNetInList)
                  00017598    00000054     http_ndk.aem4f : httpcli.oem4f (.text:asyncThread)
                  000175ec    00000004     stk6.aem4f : listlib.oem4f (.text:list_get_head)
                  000175f0    00000054     sysbios.aem4f : BIOS.obj (.text:ti_sysbios_family_arm_lm4_Timer_initDevice__I)
                  00017644    00000004     stk6.aem4f : listlib.oem4f (.text:list_get_next)
                  00017648    00000054     sysbios.aem4f : BIOS.obj (.text:ti_sysbios_knl_Swi_Instance_init__E)
                  0001769c    00000054     ti.targets.arm.rtsarm.aem4f : Assert.oem4f (.text:xdc_runtime_Assert_raise__I)
                  000176f0    00000052     nettool.aem4f : dnscomn.oem4f (.text:DNSReplyFree)
                  00017742    00000052     stk6.aem4f : tcp6prot.oem4f (.text:TCP6PrDetach)
                  00017794    00000052                : tcpprot.oem4f (.text:TcpPrDetach)
                  000177e6    00000002     --HOLE-- [fill = 0]
                  000177e8    00000050     drivers_tivaware.aem4f : GPIOTiva.oem4f (.text:GPIO_setCallback)
                  00017838    00000050                            : GPIOTiva.oem4f (.text:GPIO_write)
                  00017888    00000050     stk6.aem4f : icmpv6out.oem4f (.text:IsICMPv6ErrorPkt)
                  000178d8    00000050                : route.oem4f (.text:RtNew)
                  00017928    00000050     driverlib.lib : sysctl.obj (.text:SysCtlPeripheralReset)
                  00017978    00000050     Boot.aem4f : Boot_sysctl.oem4f (.text:_SysCtlFrequencyGet)
                  000179c8    00000050     sysbios.aem4f : BIOS.obj (.text:ti_sysbios_family_arm_m3_Hwi_Module_startup__E)
                  00017a18    00000050                   : BIOS.obj (.text:ti_sysbios_knl_Clock_Instance_init__E)
                  00017a68    00000050     ti.targets.arm.rtsarm.aem4f : Startup.oem4f (.text:xdc_runtime_Startup_exec__E)
                  00017ab8    00000050                                 : Text.oem4f (.text:xdc_runtime_Text_visitRope2__I)
                  00017b08    0000004e     stk6.aem4f : node.oem4f (.text:NodeDeRef)
                  00017b56    0000004e     nettool.aem4f : config.oem4f (.text:_CfgEntryScan)
                  00017ba4    0000004c     stk6.aem4f : mld.oem4f (.text:MLDFindMulticastNode)
                  00017bf0    0000004c     nettool.aem4f : ipaddr.oem4f (.text:NtAddNetwork)
                  00017c3c    0000004c     stk6.aem4f : sockint.oem4f (.text:SockValidateRoute)
                  00017c88    0000004c     rtsv7M4_T_le_v4SPD16_eabi.lib : atoi.c.obj (.text:atoi)
                  00017cd4    0000004c                                   : cpy_tbl.c.obj (.text:copy_in)
                  00017d20    0000004c     stk6.aem4f : file.oem4f (.text:fdint_lockfd)
                  00017d6c    00000004     http_ndk.aem4f : httpcli.oem4f (.text:threadExit)
                  00017d70    0000004c     sysbios.aem4f : BIOS.obj (.text:ti_sysbios_heaps_HeapMem_getStats__E)
                  00017dbc    00000004     httpget_pem4f.oem4f (.text:ti_sysbios_BIOS_RtsGateProxy_enter__E)
                  00017dc0    0000004c     sysbios.aem4f : BIOS.obj (.text:ti_sysbios_knl_Swi_runLoop__I)
                  00017e0c    00000004     httpget_pem4f.oem4f (.text:ti_sysbios_BIOS_RtsGateProxy_leave__E)
                  00017e10    0000004c     sysbios.aem4f : BIOS.obj (.text:ti_sysbios_knl_Task_allBlockedFunction__I)
                  00017e5c    0000004a     netctrl_min.aem4f : netsrv.oem4f (.text:ServiceKill)
                  00017ea6    0000004a     stk6.aem4f : sock.oem4f (.text:SockDisconnect)
                  00017ef0    0000004a                : tcp6prot.oem4f (.text:TCP6ValidateMetrics)
                  00017f3a    00000002     --HOLE-- [fill = 0]
                  00017f3c    0000004a                : timer.oem4f (.text:TimerNew)
                  00017f86    00000048     nettool.aem4f : config.oem4f (.text:CfgNew)
                  00017fce    00000002     --HOLE-- [fill = 0]
                  00017fd0    00000048     driverlib.lib : gpio.obj (.text:GPIOPinConfigure)
                  00018018    00000048     stk6.aem4f : lli.oem4f (.text:LLIMsg)
                  00018060    00000048                : mld.oem4f (.text:MLDCreateMulticastNode)
                  000180a8    00000048                : node.oem4f (.text:NodeWalk)
                  000180f0    00000048                : pbm.oem4f (.text:PBM_copy)
                  00018138    00000048                : rawethsock_pcb.oem4f (.text:RawEthSockPcbDetach)
                  00018180    00000048                : sockpcb.oem4f (.text:SockPcbResolveChain)
                  000181c8    00000048                : tcp6prot.oem4f (.text:TCP6Drop)
                  00018210    00000048                : tcpprot.oem4f (.text:TcpDrop)
                  00018258    00000048                : lli.oem4f (.text:_LLIExpListInsert)
                  000182a0    00000048                : rtable.oem4f (.text:_RtExpListInsert)
                  000182e8    00000048                : file.oem4f (.text:fdint_unlockfd)
                  00018330    00000048     sysbios.aem4f : BIOS.obj (.text:ti_sysbios_family_arm_lm4_Timer_enableTimers__I)
                  00018378    00000048                   : BIOS.obj (.text:ti_sysbios_family_arm_m3_Hwi_disableInterrupt__E)
                  000183c0    00000048                   : BIOS.obj (.text:ti_sysbios_family_arm_m3_Hwi_enableInterrupt__E)
                  00018408    00000048                   : BIOS.obj (.text:ti_sysbios_family_arm_m3_Hwi_excReserved__I)
                  00018450    00000048                   : BIOS.obj (.text:ti_sysbios_knl_Task_deleteTerminatedTasksFunc__I)
                  00018498    00000046     nettool.aem4f : ipaddr.oem4f (.text:NtIfIdx2Ip)
                  000184de    00000046     stk6.aem4f : rawethsock.oem4f (.text:RawEthSockSend)
                  00018524    00000046                : sock6.oem4f (.text:Sock6Bind)
                  0001856a    00000046                : tcp6prot.oem4f (.text:TCP6PrCtlError)
                  000185b0    00000046                : tcpprot.oem4f (.text:TcpPrCtlError)
                  000185f6    00000046     os.aem4f : mem.oem4f (.text:mmZeroInit)
                  0001863c    00000046     ti.targets.arm.rtsarm.aem4f : Core-params.oem4f (.text:xdc_runtime_Core_assignParams__I)
                  00018682    00000002     --HOLE-- [fill = 0]
                  00018684    00000044     drivers_tivaware.aem4f : EMACSnow.oem4f (.text:EMACSnow_processTransmitted)
                  000186c8    00000044     stk6.aem4f : icmp.oem4f (.text:ICMPChecksum)
                  0001870c    00000044                : ipfrag.oem4f (.text:IPReasmFree)
                  00018750    00000044                : lli.oem4f (.text:LLIGetValidTime)
                  00018794    00000044                : rtable.oem4f (.text:RouteMsg)
                  000187d8    00000044                : rtable.oem4f (.text:RtWalkEnd)
                  0001881c    00000044                : sockpcb.oem4f (.text:SockPcbDetach)
                  00018860    00000044                : timer.oem4f (.text:TimerListInsert)
                  000188a4    00000044     hal_timer_bios.aem4f : lltimer.oem4f (.text:llTimerGetTime)
                  000188e8    00000044     sysbios.aem4f : BIOS.obj (.text:ti_sysbios_family_arm_lm4_Timer_isrStub__E)
                  0001892c    00000004                   : BIOS.obj (.text:ti_sysbios_family_arm_lm4_Timer_masterEnable__I)
                  00018930    00000044                   : BIOS.obj (.text:ti_sysbios_family_arm_m3_Hwi_getStackInfo__E)
                  00018974    00000004     httpget_pem4f.oem4f (.text:ti_sysbios_family_arm_m3_Hwi_delete)
                  00018978    00000044     sysbios.aem4f : BIOS.obj (.text:ti_sysbios_knl_Swi_post__E)
                  000189bc    00000044     ti.targets.arm.rtsarm.aem4f : Error.oem4f (.text:xdc_runtime_Error_setX__E)
                  00018a00    00000044                                 : SysMin.oem4f (.text:xdc_runtime_SysMin_flush__E)
                  00018a44    00000044                                 : Text.oem4f (.text:xdc_runtime_Text_xprintf__I)
                  00018a88    00000042     stk6.aem4f : tcp6prot.oem4f (.text:TCP6PrSendOOB)
                  00018aca    00000042                : tcpprot.oem4f (.text:TcpPrSendOOB)
                  00018b0c    00000042                : fileuser.oem4f (.text:fdCloseSession)
                  00018b4e    00000040     nettool.aem4f : dnspkt.oem4f (.text:DNSBuildRequest)
                  00018b8e    00000040     http_ndk.aem4f : httpcli.oem4f (.text:HTTPCli_readResponseBody)
                  00018bce    00000002     --HOLE-- [fill = 0]
                  00018bd0    00000040     stk6.aem4f : ipv6_frag.oem4f (.text:IPv6ReasmTimeout)
                  00018c10    00000040                : lli6.oem4f (.text:LLI6Msg)
                  00018c50    00000040                : lliin.oem4f (.text:LLIValidateRoute)
                  00018c90    00000040                : route6.oem4f (.text:Route6Msg)
                  00018cd0    00000040                : sockpcb.oem4f (.text:SockPcbRtChange)
                  00018d10    00000040                : tcp6prot.oem4f (.text:TCP6PrSend)
                  00018d50    00000040                : tcpprot.oem4f (.text:TcpPrSend)
                  00018d90    00000040     rtsv7M4_T_le_v4SPD16_eabi.lib : u_divt2.asm.obj (.text)
                  00018dd0    00000040                                   : strtok.c.obj (.text:strtok)
                  00018e10    00000040     http_ndk.aem4f : httpcli.oem4f (.text:threadCreate)
                  00018e50    00000040     sysbios.aem4f : BIOS.obj (.text:ti_sysbios_family_arm_lm4_Timer_startup__E)
                  00018e90    00000040                   : BIOS.obj (.text:ti_sysbios_heaps_HeapMem_Instance_init__E)
                  00018ed0    0000003e     nettool.aem4f : dhcpmain.oem4f (.text:DHCPClose)
                  00018f0e    00000002     --HOLE-- [fill = 0]
                  00018f10    0000003e     stk6.aem4f : nimu.oem4f (.text:NIMUAllocateName)
                  00018f4e    0000003e                : tcp6prot.oem4f (.text:TCP6PrDisconnect)
                  00018f8c    0000003e     os.aem4f : task.oem4f (.text:TaskCreate)
                  00018fca    0000003e     stk6.aem4f : tcpprot.oem4f (.text:TcpPrDisconnect)
                  00019008    0000003c     nettool.aem4f : config.oem4f (.text:CfgEntryGetData)
                  00019044    0000003c     driverlib.lib : emac.obj (.text:EMACIntDisable)
                  00019080    0000003c     stk6.aem4f : icmpv6in.oem4f (.text:ICMPv6RecvDstUnreachable)
                  000190bc    0000003c                : node.oem4f (.text:NodeUpdatePL)
                  000190f8    0000003c                : rtable.oem4f (.text:RtWalkBegin)
                  00019134    0000003c                : tcp6prot.oem4f (.text:TCP6PrConnect)
                  00019170    0000003c                : tcp6time.oem4f (.text:TCP6SetPersist)
                  000191ac    0000003c                : tcpprot.oem4f (.text:TcpPrConnect)
                  000191e8    0000003c                : tcptime.oem4f (.text:TcpSetPersist)
                  00019224    0000003c                : rtc.oem4f (.text:_RTCSendRtAdv)
                  00019260    0000003c                : rtable.oem4f (.text:_RtNodeRemove)
                  0001929c    0000003c     hal_timer_bios.aem4f : lltimer.oem4f (.text:_llTimerInit)
                  000192d8    0000003c     rtsv7M4_T_le_v4SPD16_eabi.lib : strncasecmp.c.obj (.text:strncasecmp)
                  00019314    00000004     httpget_pem4f.oem4f (.text:ti_sysbios_family_arm_m3_TaskSupport_Module__startupDone__S)
                  00019318    0000003c     sysbios.aem4f : BIOS.obj (.text:ti_sysbios_family_arm_m3_Hwi_excSvCall__I)
                  00019354    00000004     httpget_pem4f.oem4f (.text:ti_sysbios_heaps_HeapMem_Module_GateProxy_enter__E)
                  00019358    0000003c     sysbios.aem4f : BIOS.obj (.text:ti_sysbios_heaps_HeapMem_init__I)
                  00019394    00000004     httpget_pem4f.oem4f (.text:ti_sysbios_heaps_HeapMem_Module_GateProxy_leave__E)
                  00019398    0000003c     sysbios.aem4f : BIOS.obj (.text:ti_sysbios_knl_Swi_restore__E)
                  000193d4    0000003a     driverlib.lib : emac.obj (.text:EMACIntEnable)
                  0001940e    00000002     --HOLE-- [fill = 0]
                  00019410    00000038                   : emac.obj (.text:EMACConfigGet)
                  00019448    00000038     stk6.aem4f : ipfrag.oem4f (.text:IPReasmTimeout)
                  00019480    00000038                : node.oem4f (.text:NodeGetRt)
                  000194b8    00000038                : sock6pcb.oem4f (.text:Sock6PcbRtChange)
                  000194f0    00000038     driverlib.lib : sysctl.obj (.text:SysCtlPeripheralReady)
                  00019528    00000038     stk6.aem4f : tcp6prot.oem4f (.text:TCP6Close)
                  00019560    00000038                : tcpprot.oem4f (.text:TcpClose)
                  00019598    00000038                : timer.oem4f (.text:TimerHSTick)
                  000195d0    00000038     rtsv7M4_T_le_v4SPD16_eabi.lib : trgmsg.c.obj (.text:__TI_writemsg)
                  00019608    00000038     nettool.aem4f : dhcpbild.oem4f (.text:dhcpBuildDiscover)
                  00019640    00000038                   : dhcptags.oem4f (.text:dhcpOptionsClear)
                  00019678    00000038     stk6.aem4f : file.oem4f (.text:fdint_waitevent)
                  000196b0    00000038     sysbios.aem4f : BIOS.obj (.text:ti_sysbios_family_arm_m3_Hwi_excNoIsr__I)
                  000196e8    00000038     httpget_pem4f.oem4f (.text:ti_sysbios_knl_Clock_create)
                  00019720    00000038     sysbios.aem4f : BIOS.obj (.text:ti_sysbios_knl_Task_processVitalTaskFlag__I)
                  00019758    00000038     ti.targets.arm.rtsarm.aem4f : SysMin.oem4f (.text:xdc_runtime_SysMin_putch__E)
                  00019790    00000038                                 : System.oem4f (.text:xdc_runtime_System_atexit__E)
                  000197c8    00000036     stk6.aem4f : ip.oem4f (.text:IPChecksum)
                  000197fe    00000036                : sock6.oem4f (.text:Sock6IntAbort)
                  00019834    00000036     network_ndk.aem4f : ssock.oem4f (.text:Ssock_recv)
                  0001986a    00000036     rtsv7M4_T_le_v4SPD16_eabi.lib : strncpy.c.obj (.text:strncpy)
                  000198a0    00000034     nettool.aem4f : config.oem4f (.text:CfgSetService)
                  000198d4    00000034     driverlib.lib : emac.obj (.text:EMACConfigSet)
                  00019908    00000034                   : emac.obj (.text:EMACIntClear)
                  0001993c    00000034     drivers_tivaware.aem4f : EMACSnow.oem4f (.text:EMACSnow_emacPoll)
                  00019970    00000034                            : EMACSnow.oem4f (.text:EMACSnow_isLinkUp)
                  000199a4    00000034                            : EMAC.oem4f (.text:EMAC_init)
                  000199d8    00000034     stk6.aem4f : ipv6out.oem4f (.text:IPv6GetRoute)
                  00019a0c    00000034                : nimu.oem4f (.text:NIMUFindByName)
                  00019a40    00000034                : nimu.oem4f (.text:NIMUInit)
                  00019a74    00000034                : rawethsock.oem4f (.text:RawEthSockNotify)
                  00019aa8    00000034                : sockprot.oem4f (.text:SockPrCtlError)
                  00019adc    00000034     driverlib.lib : sysctl.obj (.text:SysCtlPeripheralEnable)
                  00019b10    00000034     rtsv7M4_T_le_v4SPD16_eabi.lib : trgmsg.c.obj (.text:__TI_readmsg)
                  00019b44    00000034     os.aem4f : mem.oem4f (.text:mmUnInitPage)
                  00019b78    00000034              : ossys.oem4f (.text:stricmp)
                  00019bac    00000004     httpget_pem4f.oem4f (.text:ti_sysbios_knl_Clock_TimerProxy_getMaxTicks__E)
                  00019bb0    00000034     sysbios.aem4f : BIOS.obj (.text:ti_sysbios_family_arm_m3_Hwi_Instance_finalize__E)
                  00019be4    00000004     httpget_pem4f.oem4f (.text:ti_sysbios_knl_Queue_destruct)
                  00019be8    00000034     sysbios.aem4f : BIOS.obj (.text:ti_sysbios_family_arm_m3_Hwi_excNmi__I)
                  00019c1c    00000004     httpget_pem4f.oem4f (.text:ti_sysbios_knl_Semaphore_delete)
                  00019c20    00000034     sysbios.aem4f : BIOS.obj (.text:ti_sysbios_hal_Hwi_checkStack)
                  00019c54    00000034     httpget_pem4f.oem4f (.text:ti_sysbios_knl_Semaphore_create)
                  00019c88    00000034     ti.targets.arm.rtsarm.aem4f : Core-label.oem4f (.text:xdc_runtime_Core_assignLabel__I)
                  00019cbc    00000033                                 : Text.oem4f (.text:xdc_runtime_Text_printVisFxn__I)
                  00019cef    00000001     --HOLE-- [fill = 0]
                  00019cf0    00000032     nettool.aem4f : config.oem4f (.text:CfgGetImmediate)
                  00019d22    00000032     stk6.aem4f : route.oem4f (.text:RtDeRef)
                  00019d54    00000032                : route.oem4f (.text:RtSetFailure)
                  00019d86    00000032                : sb6.oem4f (.text:SB6Flush)
                  00019db8    00000032                : sb6.oem4f (.text:SB6SetMax)
                  00019dea    00000032                : sb.oem4f (.text:SBFlush)
                  00019e1c    00000032                : sb.oem4f (.text:SBSetMax)
                  00019e4e    00000032                : sock.oem4f (.text:SockIntAbort)
                  00019e80    00000032     nettool.aem4f : config.oem4f (.text:_CfgAcquire)
                  00019eb2    00000032                   : dhcpsm.oem4f (.text:dhcpIPRemove)
                  00019ee4    00000004     httpget_pem4f.oem4f (.text:ti_sysbios_knl_Semaphore_destruct)
                  00019ee8    00000032     sysbios.aem4f : BIOS.obj (.text:ti_sysbios_hal_Hwi_initStack)
                  00019f1a    00000006     driverlib.lib : emac.obj (.text:EMACTxDMADescriptorListSet)
                  00019f20    00000032     sysbios.aem4f : BIOS.obj (.text:ti_sysbios_knl_Semaphore_pendTimeout__I)
                  00019f52    00000002     --HOLE-- [fill = 0]
                  00019f54    00000031     httpget.obj (.text:printError)
                  00019f85    00000003     --HOLE-- [fill = 0]
                  00019f88    00000030     stk6.aem4f : bind6.oem4f (.text:Bind6FindByHost)
                  00019fb8    00000030                : bind6.oem4f (.text:Bind6FindByNet)
                  00019fe8    00000030     driverlib.lib : emac.obj (.text:EMACAddrSet)
                  0001a018    00000030     drivers_tivaware.aem4f : EMACSnow.oem4f (.text:EMACSnow_handlePackets)
                  0001a048    00000030     netctrl_min.aem4f : netsrv.oem4f (.text:NS_PreBoot)
                  0001a078    00000030     stk6.aem4f : sock6pcb.oem4f (.text:Sock6PcbDetach)
                  0001a0a8    00000030                : sock.oem4f (.text:SockBind)
                  0001a0d8    00000030     nettool.aem4f : dhcpsock.oem4f (.text:dhcpPacketSend)
                  0001a108    00000030     stk6.aem4f : listlib.oem4f (.text:list_remove_node)
                  0001a138    00000030     http_ndk.aem4f : httpcli.oem4f (.text:skipLine)
                  0001a168    00000030     httpget_pem4f.oem4f (.text:ti_sysbios_BIOS_atExitFunc__I)
                  0001a198    00000030     sysbios.aem4f : BIOS.obj (.text:ti_sysbios_family_arm_lm4_Timer_stop__E)
                  0001a1c8    00000030                   : BIOS.obj (.text:ti_sysbios_family_arm_m3_TaskSupport_start__E)
                  0001a1f8    00000030     httpget_pem4f.oem4f (.text:ti_sysbios_gates_GateHwi_Object__create__S)
                  0001a228    00000030     httpget_pem4f.oem4f (.text:ti_sysbios_gates_GateMutex_Object__create__S)
                  0001a258    00000030     sysbios.aem4f : BIOS.obj (.text:ti_sysbios_gates_GateMutex_enter__E)
                  0001a288    00000030     httpget_pem4f.oem4f (.text:ti_sysbios_heaps_HeapMem_Object__create__S)
                  0001a2b8    00000030     httpget_pem4f.oem4f (.text:ti_sysbios_knl_Semaphore_construct)
                  0001a2e8    00000030     ti.targets.arm.rtsarm.aem4f : SysMin.oem4f (.text:xdc_runtime_SysMin_abort__E)
                  0001a318    00000030                                 : System.oem4f (.text:xdc_runtime_System_processAtExit__E)
                  0001a348    0000002e     stk6.aem4f : icmpv6in.oem4f (.text:ICMPv6RecvParamProblem)
                  0001a376    0000002e                : sb.oem4f (.text:SBFree)
                  0001a3a4    0000002e     httpget_pem4f.oem4f (.text:malloc)
                  0001a3d2    0000002e     rtsv7M4_T_le_v4SPD16_eabi.lib : strcasecmp.c.obj (.text:strcasecmp)
                  0001a400    0000002c     driverlib.lib : emac.obj (.text:EMACIntStatus)
                  0001a42c    0000002c     stk6.aem4f : file.oem4f (.text:FdSignalEvent)
                  0001a458    0000002c                : igmp.oem4f (.text:IGMPTestGroup)
                  0001a484    0000002c                : lli6.oem4f (.text:LLI6Free)
                  0001a4b0    0000002c     os.aem4f : task.oem4f (.text:NDK_hookCreate)
                  0001a4dc    0000002c     stk6.aem4f : nimu.oem4f (.text:NIMUAllocateIndex)
                  0001a508    0000002c                : nimu.oem4f (.text:NIMUPacketServiceCheck)
                  0001a534    0000002c                : pipe.oem4f (.text:PipeClose)
                  0001a560    0000002c                : sockpcb.oem4f (.text:SockPcbAttach)
                  0001a58c    0000002c                : lli.oem4f (.text:_LLIExpListRemove)
                  0001a5b8    0000002c                : lli.oem4f (.text:_LLITimeoutFlush)
                  0001a5e4    0000002c                : rtable.oem4f (.text:_RtExpListRemove)
                  0001a610    0000002c     http_ndk.aem4f : httpcli.oem4f (.text:lookUpResponseFields)
                  0001a63c    0000002c     rtsv7M4_T_le_v4SPD16_eabi.lib : strncmp.c.obj (.text:strncmp)
                  0001a668    0000002c     httpget_pem4f.oem4f (.text:ti_sysbios_knl_Clock_doTick__I)
                  0001a694    0000002c     httpget_pem4f.oem4f (.text:ti_sysbios_knl_Queue_construct)
                  0001a6c0    0000002c     sysbios.aem4f : BIOS.obj (.text:ti_sysbios_knl_Task_restore__E)
                  0001a6ec    0000002c     ti.targets.arm.rtsarm.aem4f : Text.oem4f (.text:xdc_runtime_Text_cordText__E)
                  0001a718    0000002a     driverlib.lib : gpio.obj (.text:GPIODirModeSet)
                  0001a742    0000002a     stk6.aem4f : ipv6.oem4f (.text:GetHexValue)
                  0001a76c    0000002a                : icmpv6in.oem4f (.text:ICMPv6RecvTimeExceeded)
                  0001a796    0000002a                : ipv6.oem4f (.text:IPv6CompareAddress)
                  0001a7c0    0000002a                : lli6.oem4f (.text:LLI6IsRouterStatMachine)
                  0001a7ea    0000002a                : mld.oem4f (.text:MLDTestGroup)
                  0001a814    0000002a                : pbm.oem4f (.text:PBMQ_deq)
                  0001a83e    0000002a                : route6.oem4f (.text:Rt6Update)
                  0001a868    0000002a                : sb6.oem4f (.text:SB6Free)
                  0001a892    0000002a     netctrl_min.aem4f : netsrv.oem4f (.text:ServiceCallback)
                  0001a8bc    0000002a     nettool.aem4f : config.oem4f (.text:_CfgRelease)
                  0001a8e6    0000002a                   : inetaddr.oem4f (.text:mergeLists)
                  0001a910    0000002a     rtsv7M4_T_le_v4SPD16_eabi.lib : strspn.c.obj (.text:strspn)
                  0001a93a    0000002a     ti.targets.arm.rtsarm.aem4f : System.oem4f (.text:xdc_runtime_System_putchar__I)
                  0001a964    00000028     stk6.aem4f : bind6.oem4f (.text:Bind6FindByIF)
                  0001a98c    00000028                : bind.oem4f (.text:BindFindByNet)
                  0001a9b4    00000028                : exec.oem4f (.text:ExecTimer)
                  0001a9dc    00000028                : ipv6_frag.oem4f (.text:IPv6FragQFree)
                  0001aa04    00000028                : lli.oem4f (.text:LLIFree)
                  0001aa2c    00000028     netctrl_min.aem4f : netctrl.oem4f (.text:NC_SystemClose)
                  0001aa54    00000028     stk6.aem4f : nimu.oem4f (.text:NIMUCreatePacket)
                  0001aa7c    00000028                : nimu.oem4f (.text:NIMUPacketService)
                  0001aaa4    00000028                : sock6prot.oem4f (.text:Sock6PrCtlError)
                  0001aacc    00000028                : tcp6in.oem4f (.text:TCP6EnterTimeWait)
                  0001aaf4    00000028                : tcpin.oem4f (.text:TcpEnterTimeWait)
                  0001ab1c    00000028                : timer.oem4f (.text:TimerListRemove)
                  0001ab44    00000028                : vlan.oem4f (.text:VLANFindSourceInterface)
                  0001ab6c    00000028                : vlan.oem4f (.text:VLANInit)
                  0001ab94    00000028     nettool.aem4f : dhcpsock.oem4f (.text:dhcpPacketReceive)
                  0001abbc    00000028     drivers_tivaware.aem4f : EMACSnow.oem4f (.text:signalLinkChange)
                  0001abe4    00000004     httpget_pem4f.oem4f (.text:ti_sysbios_knl_Swi_delete)
                  0001abe8    00000028     sysbios.aem4f : BIOS.obj (.text:ti_sysbios_knl_Clock_addI__E)
                  0001ac10    00000028                   : BIOS.obj (.text:ti_sysbios_knl_Swi_Module_startup__E)
                  0001ac38    00000026     nettool.aem4f : config.oem4f (.text:CfgEntryInfo)
                  0001ac5e    00000026     driverlib.lib : emac.obj (.text:EMACPHYRead)
                  0001ac84    00000026                   : emac.obj (.text:EMACPHYWrite)
                  0001acaa    00000026     stk6.aem4f : rawethsock.oem4f (.text:RawEthSockClose)
                  0001acd0    00000026     sysbios.aem4f : m3_Hwi_asm.obj (.text:ti_sysbios_family_arm_m3_Hwi_pendSV__I)
                  0001acf6    00000026     ti.targets.arm.rtsarm.aem4f : System.oem4f (.text:xdc_runtime_System_avprintf__E)
                  0001ad1c    00000024     stk6.aem4f : bind.oem4f (.text:BindFindByHost)
                  0001ad40    00000024                : bind.oem4f (.text:BindGetIFByDBCast)
                  0001ad64    00000024     drivers_tivaware.aem4f : EMACSnow.oem4f (.text:EMACSnow_pkt_service)
                  0001ad88    00000024                            : EMACSnow.oem4f (.text:EMACSnow_primeRx)
                  0001adac    00000024     http_ndk.aem4f : httpcli.oem4f (.text:HTTPCli_disconnect)
                  0001add0    00000024     stk6.aem4f : nimu.oem4f (.text:NIMUFindByIndex)
                  0001adf4    00000024                : rtc.oem4f (.text:RTCAddHook)
                  0001ae18    00000024                : rawethsock_pcb.oem4f (.text:RawEthSockPcbFind)
                  0001ae3c    00000024                : route.oem4f (.text:RtFree)
                  0001ae60    00000024                : route.oem4f (.text:RtSetTimeout)
                  0001ae84    00000024                : sock6pcb.oem4f (.text:Sock6PcbAttach)
                  0001aea8    00000024                : sock6pcb.oem4f (.text:Sock6PcbCleanup)
                  0001aecc    00000024                : sockpcb.oem4f (.text:SockPcbCleanup)
                  0001aef0    00000024                : tcptime.oem4f (.text:TcpTimeoutWait2)
                  0001af14    00000024     nettool.aem4f : config.oem4f (.text:_CfgEntryProcess)
                  0001af38    00000024     http_ndk.aem4f : httpcli.oem4f (.text:getRequestFieldValue)
                  0001af5c    00000024     rtsv7M4_T_le_v4SPD16_eabi.lib : strcspn.c.obj (.text:strcspn)
                  0001af80    00000024     httpget_pem4f.oem4f (.text:ti_sysbios_BIOS_errorRaiseHook__I)
                  0001afa4    00000024     httpget_pem4f.oem4f (.text:ti_sysbios_BIOS_registerRTSLock__I)
                  0001afc8    00000024     httpget_pem4f.oem4f (.text:ti_sysbios_BIOS_removeRTSLock__I)
                  0001afec    00000024     httpget_pem4f.oem4f (.text:ti_sysbios_BIOS_startFunc__I)
                  0001b010    00000024     httpget_pem4f.oem4f (.text:ti_sysbios_gates_GateMutex_Object__delete__S)
                  0001b034    00000004     httpget_pem4f.oem4f (.text:ti_sysbios_knl_Task_delete)
                  0001b038    00000024     sysbios.aem4f : BIOS.obj (.text:ti_sysbios_knl_Clock_Module_startup__E)
                  0001b05c    00000004     ti.targets.arm.rtsarm.aem4f : Error.oem4f (.text:xdc_runtime_Error_getMsg__E)
                  0001b060    00000024     sysbios.aem4f : BIOS.obj (.text:ti_sysbios_knl_Semaphore_Instance_init__E)
                  0001b084    00000024     httpget_pem4f.oem4f (.text:ti_sysbios_knl_Semaphore_Object__delete__S)
                  0001b0a8    00000024     sysbios.aem4f : BIOS.obj (.text:ti_sysbios_knl_Task_restoreHwi__E)
                  0001b0cc    00000024     ti.targets.arm.rtsarm.aem4f : System.oem4f (.text:xdc_runtime_System_vprintf__E)
                  0001b0f0    00000022     nettool.aem4f : config.oem4f (.text:CfgEntryRef)
                  0001b112    00000022     stk6.aem4f : route6.oem4f (.text:Rt6GetNetworkAddr)
                  0001b134    00000022                : vlan.oem4f (.text:VLANFindNode)
                  0001b156    00000002     --HOLE-- [fill = 0]
                  0001b158    00000022     sysbios.aem4f : BIOS.obj (.text:ti_sysbios_family_arm_lm4_Timer_write__I)
                  0001b17a    00000022     httpget_pem4f.oem4f (.text:xdc_runtime_SysMin_output__I)
                  0001b19c    00000020     stk6.aem4f : bind6.oem4f (.text:Bind6IF2IPHost)
                  0001b1bc    00000020     netctrl_min.aem4f : netctrl.oem4f (.text:NC_BootComplete)
                  0001b1dc    00000020     stk6.aem4f : nimu.oem4f (.text:NIMUGetNumOfObject)
                  0001b1fc    00000020                : rtc.oem4f (.text:RTCRemoveHook)
                  0001b21c    00000020                : route6.oem4f (.text:Rt6IsDefaultRoute)
                  0001b23c    00000020                : tcp6.oem4f (.text:TCP6TimeoutRemove)
                  0001b25c    00000020                : tcp6time.oem4f (.text:TCP6TimeoutWait2)
                  0001b27c    00000020                : tcp.oem4f (.text:TcpTimeoutRemove)
                  0001b29c    00000020     Boot.aem4f : Boot_sysctl.oem4f (.text:_SysCtlMemTimingGet)
                  0001b2bc    00000020     stk6.aem4f : ipv6.oem4f (.text:isValidHexDigit)
                  0001b2dc    00000020                : listlib.oem4f (.text:list_cat)
                  0001b2fc    00000020     httpget_pem4f.oem4f (.text:ti_sysbios_BIOS_rtsLock__I)
                  0001b31c    00000020     httpget_pem4f.oem4f (.text:ti_sysbios_family_arm_m3_Hwi_Object__delete__S)
                  0001b33c    00000020     sysbios.aem4f : m3_Hwi_asm.obj (.text:ti_sysbios_family_arm_m3_Hwi_excHandlerAsm__I)
                  0001b35c    00000004     ti.targets.arm.rtsarm.aem4f : Error.oem4f (.text:xdc_runtime_Error_getSite__E)
                  0001b360    00000020     sysbios.aem4f : BIOS.obj (.text:ti_sysbios_family_arm_m3_Hwi_excHandler__I)
                  0001b380    00000020     httpget_pem4f.oem4f (.text:ti_sysbios_gates_GateHwi_Object__delete__S)
                  0001b3a0    00000020     httpget_pem4f.oem4f (.text:ti_sysbios_heaps_HeapMem_Object__delete__S)
                  0001b3c0    00000020     sysbios.aem4f : BIOS.obj (.text:ti_sysbios_knl_Idle_run__E)
                  0001b3e0    00000020     httpget_pem4f.oem4f (.text:ti_sysbios_knl_Semaphore_Object__destruct__S)
                  0001b400    00000020     httpget_pem4f.oem4f (.text:ti_sysbios_knl_Swi_Object__delete__S)
                  0001b420    00000020     httpget_pem4f.oem4f (.text:ti_sysbios_knl_Task_Object__delete__S)
                  0001b440    00000020     ti.targets.arm.rtsarm.aem4f : Registry.oem4f (.text:xdc_runtime_Registry_findById__E)
                  0001b460    00000020                                 : SysMin.oem4f (.text:xdc_runtime_SysMin_Module_startup__E)
                  0001b480    0000001e     stk6.aem4f : fileuser.oem4f (.text:fdError)
                  0001b49e    0000001e                : listlib.oem4f (.text:list_remove)
                  0001b4bc    0000001e     rtsv7M4_T_le_v4SPD16_eabi.lib : strcat.c.obj (.text:strcat)
                  0001b4da    0000001e     sysbios.aem4f : m3_Hwi_asm_switch.obj (.text:ti_sysbios_family_xxx_Hwi_switchAndRunFunc)
                  0001b4f8    0000001c     stk6.aem4f : bind.oem4f (.text:BindFindByIF)
                  0001b514    0000001c                : exec.oem4f (.text:ExecBroadcast)
                  0001b530    0000001c                : icmpv6in.oem4f (.text:ICMPv6RecvPktTooBig)
                  0001b54c    0000001c                : ipv6.oem4f (.text:IPv6IsLinkLocal)
                  0001b568    0000001c     os.aem4f : ossys.oem4f (.text:NDK_sprintf)
                  0001b584    0000001c     stk6.aem4f : nimu.oem4f (.text:NIMUAddHeader)
                  0001b5a0    0000001c                : sock6prot.oem4f (.text:Sock6PrDetach)
                  0001b5bc    0000001c                : sockprot.oem4f (.text:SockPrDetach)
                  0001b5d8    0000001c     network_ndk.aem4f : ssock.oem4f (.text:Ssock_destruct)
                  0001b5f4    0000001c     os.aem4f : task.oem4f (.text:TaskDestroy)
                  0001b610    0000001c     drivers_tivaware.aem4f : GPIOTiva.oem4f (.text:getGpioIntIndex)
                  0001b62c    0000001c     httpget_pem4f.oem4f (.text:ti_ndk_config_global_taskCreateHook)
                  0001b648    0000001c     sysbios.aem4f : BIOS.obj (.text:ti_sysbios_gates_GateMutex_Instance_init__E)
                  0001b664    0000001c     httpget_pem4f.oem4f (.text:ti_sysbios_knl_Queue_Object__destruct__S)
                  0001b680    0000001c     sysbios.aem4f : BIOS.obj (.text:ti_sysbios_knl_Queue_put__E)
                  0001b69c    00000004     httpget_pem4f.oem4f (.text:xdc_runtime_System_Module_GateProxy_enter__E)
                  0001b6a0    0000001c     sysbios.aem4f : BIOS.obj (.text:ti_sysbios_knl_Task_enter__I)
                  0001b6bc    0000001c     ti.targets.arm.rtsarm.aem4f : Error.oem4f (.text:xdc_runtime_Error_raiseX__E)
                  0001b6d8    0000001c                                 : Memory.oem4f (.text:xdc_runtime_Memory_valloc__E)
                  0001b6f4    0000001c                                 : SysMin.oem4f (.text:xdc_runtime_SysMin_exit__E)
                  0001b710    0000001c                                 : System.oem4f (.text:xdc_runtime_System_abort__E)
                  0001b72c    0000001a     stk6.aem4f : bind.oem4f (.text:BindGetIP)
                  0001b746    0000001a                : sock6int.oem4f (.text:Sock6SetOOBMark)
                  0001b760    0000001a                : sockint.oem4f (.text:SockSetOOBMark)
                  0001b77a    0000001a                : file.oem4f (.text:fdint_getfdt)
                  0001b794    0000001a     httpget_pem4f.oem4f (.text:free)
                  0001b7ae    0000001a     httpget_pem4f.oem4f (.text:ti_sysbios_family_arm_m3_Hwi_Handle__label__S)
                  0001b7c8    0000001a     httpget_pem4f.oem4f (.text:ti_sysbios_gates_GateHwi_Handle__label__S)
                  0001b7e2    0000001a     httpget_pem4f.oem4f (.text:ti_sysbios_gates_GateMutex_Handle__label__S)
                  0001b7fc    0000001a     httpget_pem4f.oem4f (.text:ti_sysbios_heaps_HeapMem_Handle__label__S)
                  0001b816    0000001a     httpget_pem4f.oem4f (.text:ti_sysbios_knl_Swi_Handle__label__S)
                  0001b830    0000001a     httpget_pem4f.oem4f (.text:ti_sysbios_knl_Task_Handle__label__S)
                  0001b84a    00000006     driverlib.lib : gpio.obj (.text:GPIOIntClear)
                  0001b850    0000001a     sysbios.aem4f : BIOS.obj (.text:ti_sysbios_knl_Task_sleepTimeout__I)
                  0001b86a    0000001a     httpget_pem4f.oem4f (.text:xdc_runtime_System_aprintf__E)
                  0001b884    0000001a     httpget_pem4f.oem4f (.text:xdc_runtime_System_printf__E)
                  0001b89e    00000002     --HOLE-- [fill = 0]
                  0001b8a0    00000018     drivers_tivaware.aem4f : EMACSnow.oem4f (.text:EMACSnow_emacSend)
                  0001b8b8    00000018     stk6.aem4f : ip.oem4f (.text:IPRtChange)
                  0001b8d0    00000018                : ipv6.oem4f (.text:IPv6IsMulticast)
                  0001b8e8    00000018                : mld.oem4f (.text:MLDDeleteMulticastNode)
                  0001b900    00000018                : rawethsock_pcb.oem4f (.text:RawEthSockPcbCleanup)
                  0001b918    00000018     nettool.aem4f : ipaddr.oem4f (.text:RouteHook)
                  0001b930    00000018     stk6.aem4f : tcp6in.oem4f (.text:SEQ_GEQ)
                  0001b948    00000018                : tcp6out.oem4f (.text:SEQ_GEQ)
                  0001b960    00000018                : tcpin.oem4f (.text:SEQ_GEQ)
                  0001b978    00000018                : tcpout.oem4f (.text:SEQ_GEQ)
                  0001b990    00000018                : tcp6in.oem4f (.text:SEQ_GT)
                  0001b9a8    00000018                : tcp6out.oem4f (.text:SEQ_GT)
                  0001b9c0    00000018                : tcpin.oem4f (.text:SEQ_GT)
                  0001b9d8    00000018                : tcpout.oem4f (.text:SEQ_GT)
                  0001b9f0    00000018                : tcp6in.oem4f (.text:SEQ_LEQ)
                  0001ba08    00000018                : tcp6out.oem4f (.text:SEQ_LEQ)
                  0001ba20    00000018                : tcpin.oem4f (.text:SEQ_LEQ)
                  0001ba38    00000018                : tcpout.oem4f (.text:SEQ_LEQ)
                  0001ba50    00000018                : tcp6in.oem4f (.text:SEQ_LT)
                  0001ba68    00000018                : tcp6out.oem4f (.text:SEQ_LT)
                  0001ba80    00000018                : tcpin.oem4f (.text:SEQ_LT)
                  0001ba98    00000018                : tcpout.oem4f (.text:SEQ_LT)
                  0001bab0    00000018                : tcp6.oem4f (.text:TCP6TimeoutAdd)
                  0001bac8    00000018                : tcp.oem4f (.text:TcpTimeoutAdd)
                  0001bae0    00000018     rtsv7M4_T_le_v4SPD16_eabi.lib : args_main.c.obj (.text:_args_main)
                  0001baf8    00000018     nettool.aem4f : dhcpsock.oem4f (.text:dhcpSocketClose)
                  0001bb10    00000018                   : inetaddr.oem4f (.text:freeaddrinfo)
                  0001bb28    00000018     stk6.aem4f : listlib.oem4f (.text:list_add)
                  0001bb40    00000018     rtsv7M4_T_le_v4SPD16_eabi.lib : strcmp.c.obj (.text:strcmp)
                  0001bb58    00000018     httpget_pem4f.oem4f (.text:ti_sysbios_BIOS_rtsUnlock__I)
                  0001bb70    00000018     httpget_pem4f.oem4f (.text:ti_sysbios_family_arm_lm4_Timer_Module__startupDone__F)
                  0001bb88    00000018     httpget_pem4f.oem4f (.text:ti_sysbios_family_arm_m3_Hwi_Module__startupDone__F)
                  0001bba0    00000018     sysbios.aem4f : m3_TaskSupport_asm.obj (.text:ti_sysbios_family_arm_m3_TaskSupport_swap__E)
                  0001bbb8    00000018                   : BIOS.obj (.text:ti_sysbios_gates_GateMutex_leave__E)
                  0001bbd0    00000018     ti.targets.arm.rtsarm.aem4f : Error.oem4f (.text:xdc_runtime_Error_check__E)
                  0001bbe8    00000018                                 : System.oem4f (.text:xdc_runtime_System_exit__E)
                  0001bc00    00000018                                 : Text.oem4f (.text:xdc_runtime_Text_ropeText__E)
                  0001bc18    00000016     driverlib.lib : emac.obj (.text:EMACReset)
                  0001bc2e    00000016                   : emac.obj (.text:EMACRxEnable)
                  0001bc44    00000016                   : emac.obj (.text:EMACTxEnable)
                  0001bc5a    00000016     http_ndk.aem4f : httpcli.oem4f (.text:HTTPCli_destruct)
                  0001bc70    00000016                    : httpcli.oem4f (.text:HTTPCli_readRawResponseBody)
                  0001bc86    00000016     stk6.aem4f : file.oem4f (.text:fdint_freefdt)
                  0001bc9c    00000016     rtsv7M4_T_le_v4SPD16_eabi.lib : strchr.c.obj (.text:strchr)
                  0001bcb2    00000016     httpget_pem4f.oem4f (.text:ti_sysbios_BIOS_exitFunc__I)
                  0001bcc8    00000016     ti.targets.arm.rtsarm.aem4f : System.oem4f (.text:xdc_runtime_System_vsprintf__E)
                  0001bcde    00000014     stk6.aem4f : bind.oem4f (.text:BindIPHost2IF)
                  0001bcf2    00000002     --HOLE-- [fill = 0]
                  0001bcf4    00000014     driverlib.lib : flash.obj (.text:FlashUserGet)
                  0001bd08    00000014     http_ndk.aem4f : httpcli.oem4f (.text:HTTPCli_getResponseStatus)
                  0001bd1c    00000014     stk6.aem4f : lli6.oem4f (.text:LLI6IsValid)
                  0001bd30    00000014     netctrl_min.aem4f : netctrl.oem4f (.text:NC_NetStop)
                  0001bd44    00000014     os.aem4f : task.oem4f (.text:NDK_hookExit)
                  0001bd58    00000014     stk6.aem4f : nimu.oem4f (.text:NIMUSendPacket)
                  0001bd6c    00000014     nettool.aem4f : ipaddr.oem4f (.text:NtRemoveNetwork)
                  0001bd80    00000014     stk6.aem4f : rawethsock_pcb.oem4f (.text:RawEthSockPcbInit)
                  0001bd94    00000014     network_ndk.aem4f : ssock.oem4f (.text:Ssock_construct)
                  0001bda8    00000014     stk6.aem4f : timer.oem4f (.text:TimerFree)
                  0001bdbc    00000014     rtsv7M4_T_le_v4SPD16_eabi.lib : strcpy.c.obj (.text:strcpy)
                  0001bdd0    00000014                                   : strlen.c.obj (.text:strlen)
                  0001bde4    00000014     httpget_pem4f.oem4f (.text:ti_ndk_config_global_taskExitHook)
                  0001bdf8    00000014     httpget_pem4f.oem4f (.text:ti_sysbios_family_arm_m3_Hwi_Object__get__S)
                  0001be0c    00000004     httpget_pem4f.oem4f (.text:xdc_runtime_System_Module_GateProxy_leave__E)
                  0001be10    00000014     sysbios.aem4f : BIOS.obj (.text:ti_sysbios_family_arm_m3_Hwi_switchFromBootStack__E)
                  0001be24    00000014     httpget_pem4f.oem4f (.text:ti_sysbios_heaps_HeapMem_Object__get__S)
                  0001be38    00000014     httpget_pem4f.oem4f (.text:ti_sysbios_knl_Swi_Object__get__S)
                  0001be4c    00000014     httpget_pem4f.oem4f (.text:ti_sysbios_knl_Task_Object__first__S)
                  0001be60    00000014     httpget_pem4f.oem4f (.text:ti_sysbios_knl_Task_Object__next__S)
                  0001be74    00000012     driverlib.lib : gpio.obj (.text:GPIOPinTypeEthernetLED)
                  0001be86    00000012     stk6.aem4f : sock6prot.oem4f (.text:Sock6PrAttach)
                  0001be98    00000012                : sock6int.oem4f (.text:Sock6SetOOBData)
                  0001beaa    00000012                : sockprot.oem4f (.text:SockPrAttach)
                  0001bebc    00000012                : sockint.oem4f (.text:SockSetOOBData)
                  0001bece    00000012     nettool.aem4f : inetaddr.oem4f (.text:inet_addr)
                  0001bee0    00000012     sysbios.aem4f : BIOS.obj (.text:ti_sysbios_hal_Hwi_Module_startup__E)
                  0001bef2    00000006     driverlib.lib : gpio.obj (.text:GPIOPinWrite)
                  0001bef8    00000012     sysbios.aem4f : BIOS.obj (.text:ti_sysbios_knl_Semaphore_reset__E)
                  0001bf0a    00000012     httpget_pem4f.oem4f (.text:xdc_runtime_Startup_exec__I)
                  0001bf1c    00000010     httpget_pem4f.oem4f (.text:.bootCodeSection:ti_catalog_arm_cortexm4_tiva_ce_Boot_init__I)
                  0001bf2c    00000010     stk6.aem4f : bind.oem4f (.text:BindIF2IPHost)
                  0001bf3c    00000010                : bind.oem4f (.text:BindIFNet2IPHost)
                  0001bf4c    00000010     driverlib.lib : emac.obj (.text:EMACFrameFilterSet)
                  0001bf5c    00000010     stk6.aem4f : exec.oem4f (.text:ExecHRef)
                  0001bf6c    00000010                : lli6.oem4f (.text:LLI6IsDead)
                  0001bf7c    00000010                : lli6.oem4f (.text:LLI6IsRouter)
                  0001bf8c    00000010     netctrl_min.aem4f : netctrl.oem4f (.text:NC_IPUpdate)
                  0001bf9c    00000010     stk6.aem4f : nimu.oem4f (.text:NIMUGetRsvdSizeInfo)
                  0001bfac    00000010                : route6.oem4f (.text:Rt6IsLocalRoute)
                  0001bfbc    00000004     ti.targets.arm.rtsarm.aem4f : System.oem4f (.text:xdc_runtime_System_aprintf_va__F)
                  0001bfc0    00000010     sysbios.aem4f : BIOS.obj (.text:ti_sysbios_BIOS_exit__E)
                  0001bfd0    00000010                   : BIOS.obj (.text:ti_sysbios_BIOS_getCpuFreq__E)
                  0001bfe0    00000010                   : BIOS.obj (.text:ti_sysbios_BIOS_setThreadType__E)
                  0001bff0    00000010                   : BIOS.obj (.text:ti_sysbios_BIOS_start__E)
                  0001c000    00000010                   : m3_TaskSupport_asm.obj (.text:ti_sysbios_family_arm_m3_TaskSupport_glue)
                  0001c010    00000010                   : BIOS.obj (.text:ti_sysbios_gates_GateMutex_Instance_finalize__E)
                  0001c020    00000010                   : BIOS.obj (.text:ti_sysbios_knl_Semaphore_Instance_finalize__E)
                  0001c030    00000010                   : BIOS.obj (.text:ti_sysbios_knl_Swi_disable__E)
                  0001c040    00000010     httpget_pem4f.oem4f (.text:ti_sysbios_knl_Task_Object__get__S)
                  0001c050    00000010     sysbios.aem4f : BIOS.obj (.text:ti_sysbios_knl_Task_disable__E)
                  0001c060    00000010     ti.targets.arm.rtsarm.aem4f : Gate.oem4f (.text:xdc_runtime_Gate_leaveSystem__E)
                  0001c070    00000010                                 : Memory.oem4f (.text:xdc_runtime_Memory_free__E)
                  0001c080    00000010                                 : SysMin.oem4f (.text:xdc_runtime_SysMin_ready__E)
                  0001c090    00000010                                 : System.oem4f (.text:xdc_runtime_System_vsnprintf__E)
                  0001c0a0    00000010     httpget_pem4f.oem4f (.text:xdc_runtime_Text_visitRope__I)
                  0001c0b0    0000000e     drivers_tivaware.aem4f : EMACSnow.oem4f (.text:EMACSnow_emacioctl)
                  0001c0be    0000000e     stk6.aem4f : exec.oem4f (.text:ExecLowResource)
                  0001c0cc    0000000e     driverlib.lib : gpio.obj (.text:GPIOIntStatus)
                  0001c0da    0000000e     rtsv7M4_T_le_v4SPD16_eabi.lib : copy_decompress_none.c.obj (.text:decompress:none:__TI_decompress_none)
                  0001c0e8    0000000e     http_ndk.aem4f : httpcli.oem4f (.text:isValidSocket)
                  0001c0f6    00000002     --HOLE-- [fill = 0]
                  0001c0f8    0000000e     sysbios.aem4f : BIOS.obj (.text:ti_sysbios_knl_Idle_loop__E)
                  0001c106    00000002     --HOLE-- [fill = 0]
                  0001c108    0000000e                   : BIOS.obj (.text:ti_sysbios_knl_Queue_empty__E)
                  0001c116    00000002     --HOLE-- [fill = 0]
                  0001c118    0000000c     stk6.aem4f : bind.oem4f (.text:BindGetFirst)
                  0001c124    0000000c     nettool.aem4f : config.oem4f (.text:CfgSetDefault)
                  0001c130    0000000c     drivers_tivaware.aem4f : EMACSnow.oem4f (.text:EMACSnow_init)
                  0001c13c    0000000c     os.aem4f : task.oem4f (.text:NDK_hookInit)
                  0001c148    0000000c     stk6.aem4f : nimu.oem4f (.text:NIMUSetRsvdSizeInfo)
                  0001c154    0000000c     os.aem4f : task.oem4f (.text:NotifyLowResource)
                  0001c160    0000000c     stk6.aem4f : pbm.oem4f (.text:PBM_close)
                  0001c16c    0000000c     os.aem4f : semaphore.oem4f (.text:SemDelete)
                  0001c178    0000000c     hal_timer_bios.aem4f : lltimer.oem4f (.text:_llTimerShutdown)
                  0001c184    0000000c     rtsv7M4_T_le_v4SPD16_eabi.lib : _lock.c.obj (.text:_register_lock)
                  0001c190    0000000c                                   : _lock.c.obj (.text:_register_unlock)
                  0001c19c    0000000c                                   : copy_zero_init.c.obj (.text:decompress:ZI:__TI_zero_init)
                  0001c1a8    0000000c     hal_timer_bios.aem4f : lltimer.oem4f (.text:llTimerGetStartTime)
                  0001c1b4    00000004     ti.targets.arm.rtsarm.aem4f : System.oem4f (.text:xdc_runtime_System_printf_va__F)
                  0001c1b8    0000000c     sysbios.aem4f : BIOS.obj (.text:ti_sysbios_BIOS_getThreadType__E)
                  0001c1c4    00000004     --HOLE-- [fill = 0]
                  0001c1c8    0000000c                   : BIOS.obj (.text:ti_sysbios_family_arm_lm4_Timer_getMaxTicks__E)
                  0001c1d4    0000000c     httpget_pem4f.oem4f (.text:ti_sysbios_family_arm_m3_Hwi_Params__init__S)
                  0001c1e0    0000000c     sysbios.aem4f : BIOS.obj (.text:ti_sysbios_family_arm_m3_Hwi_disableFxn__E)
                  0001c1ec    00000004     --HOLE-- [fill = 0]
                  0001c1f0    0000000c                   : BIOS.obj (.text:ti_sysbios_family_arm_m3_TaskSupport_checkStack__E)
                  0001c1fc    00000004     --HOLE-- [fill = 0]
                  0001c200    0000000c                   : BIOS.obj (.text:ti_sysbios_family_arm_m3_TaskSupport_getStackAlignment__E)
                  0001c20c    00000004     --HOLE-- [fill = 0]
                  0001c210    0000000c                   : BIOS.obj (.text:ti_sysbios_gates_GateHwi_enter__E)
                  0001c21c    0000000c     httpget_pem4f.oem4f (.text:ti_sysbios_knl_Clock_Params__init__S)
                  0001c228    0000000c     sysbios.aem4f : BIOS.obj (.text:ti_sysbios_knl_Clock_getTicks__E)
                  0001c234    0000000c     httpget_pem4f.oem4f (.text:ti_sysbios_knl_Queue_Object__get__S)
                  0001c240    0000000c     httpget_pem4f.oem4f (.text:ti_sysbios_knl_Semaphore_Params__init__S)
                  0001c24c    0000000c     httpget_pem4f.oem4f (.text:ti_sysbios_knl_Task_Params__init__S)
                  0001c258    0000000c     sysbios.aem4f : BIOS.obj (.text:ti_sysbios_knl_Task_getIdleTask__E)
                  0001c264    00000004     --HOLE-- [fill = 0]
                  0001c268    0000000c                   : BIOS.obj (.text:ti_sysbios_knl_Task_self__E)
                  0001c274    0000000c     ti.targets.arm.rtsarm.aem4f : Error.oem4f (.text:xdc_runtime_Error_init__E)
                  0001c280    0000000c                                 : Gate.oem4f (.text:xdc_runtime_Gate_enterSystem__E)
                  0001c28c    0000000c                                 : Memory.oem4f (.text:xdc_runtime_Memory_calloc__E)
                  0001c298    0000000c                                 : Memory.oem4f (.text:xdc_runtime_Memory_getMaxDefaultTypeAlign__E)
                  0001c2a4    0000000a     stk6.aem4f : bind6.oem4f (.text:Bind6GetInterfaceHandle)
                  0001c2ae    0000000a                : bind6.oem4f (.text:Bind6GetLifetime)
                  0001c2b8    0000000a     http_ndk.aem4f : httpcli.oem4f (.text:HTTPCli_setRequestFields)
                  0001c2c2    0000000a                    : httpcli.oem4f (.text:HTTPCli_setResponseFields)
                  0001c2cc    0000000a     stk6.aem4f : lli6.oem4f (.text:LLI6GetNetDevice)
                  0001c2d6    0000000a                : lli6.oem4f (.text:LLI6IncRefCount)
                  0001c2e0    0000000a                : route6.oem4f (.text:Rt6GetIF)
                  0001c2ea    0000000a                : route6.oem4f (.text:Rt6GetLLI)
                  0001c2f4    0000000a                : route6.oem4f (.text:Rt6GetMTU)
                  0001c2fe    0000000a                : route6.oem4f (.text:Rt6IncRefCount)
                  0001c308    0000000a                : file.oem4f (.text:fdint_signalevent)
                  0001c312    0000000a                : file.oem4f (.text:fdint_signaltimeout)
                  0001c31c    0000000a     httpget_pem4f.oem4f (.text:xdc_runtime_IHeap_alloc)
                  0001c326    0000000a     httpget_pem4f.oem4f (.text:xdc_runtime_IHeap_free)
                  0001c330    00000008     driverlib.lib : emac.obj (.text:EMACTxDMAPollDemand)
                  0001c338    00000008     stk6.aem4f : lli6.oem4f (.text:LLI6SetIncomplete)
                  0001c340    00000008                : node.oem4f (.text:NodeFree)
                  0001c348    00000008     os.aem4f : task.oem4f (.text:TaskBlock)
                  0001c350    00000008     rtsv7M4_T_le_v4SPD16_eabi.lib : errno.c.obj (.text:__aeabi_errno_addr)
                  0001c358    00000008     sysbios.aem4f : BIOS.obj (.text:ti_sysbios_family_arm_lm4_Timer_masterDisable__I)
                  0001c360    00000008                   : BIOS.obj (.text:ti_sysbios_family_arm_m3_Hwi_doSwiRestore__I)
                  0001c368    00000008                   : BIOS.obj (.text:ti_sysbios_family_arm_m3_Hwi_startup__E)
                  0001c370    00000008                   : BIOS.obj (.text:ti_sysbios_knl_Task_getHookContext__E)
                  0001c378    00000008                   : BIOS.obj (.text:ti_sysbios_knl_Task_setHookContext__E)
                  0001c380    00000006     driverlib.lib : sysctl.obj (.text:SysCtlDelay)
                  0001c386    00000006     stk6.aem4f : tcp6prot.oem4f (.text:TCP6PrRecv)
                  0001c38c    00000006                : tcpprot.oem4f (.text:TcpPrRecv)
                  0001c392    00000006     ti.targets.arm.rtsarm.aem4f : xdc_noinit.oem4f (.text:__xdc__init)
                  0001c398    00000006     http_ndk.aem4f : httpcli.oem4f (.text:startSecureMode)
                  0001c39e    00000002     --HOLE-- [fill = 0]
                  0001c3a0    00000006     sysbios.aem4f : BIOS.obj (.text:ti_sysbios_family_arm_m3_Hwi_doTaskRestore__I)
                  0001c3a6    00000002     --HOLE-- [fill = 0]
                  0001c3a8    00000006                   : BIOS.obj (.text:ti_sysbios_family_arm_m3_Hwi_restoreFxn__E)
                  0001c3ae    00000002     --HOLE-- [fill = 0]
                  0001c3b0    00000006                   : BIOS.obj (.text:ti_sysbios_gates_GateHwi_leave__E)
                  0001c3b6    00000002     --HOLE-- [fill = 0]
                  0001c3b8    00000006                   : BIOS.obj (.text:ti_sysbios_heaps_HeapMem_isBlocking__E)
                  0001c3be    00000002     --HOLE-- [fill = 0]
                  0001c3c0    00000006                   : BIOS.obj (.text:ti_sysbios_knl_Queue_Instance_init__E)
                  0001c3c6    00000002     --HOLE-- [fill = 0]
                  0001c3c8    00000006                   : BIOS.obj (.text:ti_sysbios_knl_Swi_startup__E)
                  0001c3ce    00000006     ti.targets.arm.rtsarm.aem4f : System.oem4f (.text:xdc_runtime_System_Module_startup__E)
                  0001c3d4    00000004     --HOLE-- [fill = 0]
                  0001c3d8    00000004     sysbios.aem4f : BIOS.obj (.text:ti_sysbios_gates_GateHwi_query__E)
                  0001c3dc    00000004     --HOLE-- [fill = 0]
                  0001c3e0    00000004                   : BIOS.obj (.text:ti_sysbios_gates_GateMutex_query__E)
                  0001c3e4    00000004     --HOLE-- [fill = 0]
                  0001c3e8    00000004                   : BIOS.obj (.text:ti_sysbios_knl_Task_startup__E)
                  0001c3ec    00000004     --HOLE-- [fill = 0]
                  0001c3f0    00000002                   : BIOS.obj (.text:ti_sysbios_gates_GateHwi_Instance_init__E)
                  0001c3f2    00000006     --HOLE-- [fill = 0]
                  0001c3f8    00000002                   : BIOS.obj (.text:ti_sysbios_knl_Clock_logTick__E)
                  0001c3fa    00000006     --HOLE-- [fill = 0]
                  0001c400    00000002                   : BIOS.obj (.text:ti_sysbios_knl_Swi_Instance_finalize__E)

.const     0    0001c404    0000284a     
                  0001c404    0000191d     httpget_pem4f.oem4f (.const:xdc_runtime_Text_charTab__A)
                  0001dd21    00000001     httpget_pem4f.oem4f (.const:.string:$P$T0$1)
                  0001dd22    00000002     httpget_pem4f.oem4f (.const:ti_catalog_arm_cortexm4_tiva_ce_Boot_Module__id__C)
                  0001dd24    00000370     http_ndk.aem4f : httpstd.oem4f (.const:.string)
                  0001e094    00000120     Boot.aem4f : Boot_sysctl.oem4f (.const:g_pppui32XTALtoVCO)
                  0001e1b4    00000101     rtsv7M4_T_le_v4SPD16_eabi.lib : ctype.c.obj (.const:.string:_ctypes_)
                  0001e2b5    00000001     httpget_pem4f.oem4f (.const:xdc_runtime_Error_policy__C)
                  0001e2b6    000000d4     httpget_pem4f.oem4f (.const:xdc_runtime_Text_nodeTab__A)
                  0001e38a    00000002     httpget_pem4f.oem4f (.const:ti_sysbios_family_arm_m3_Hwi_Module__id__C)
                  0001e38c    000000cc     httpget_pem4f.oem4f (.const:.string)
                  0001e458    00000090     driverlib.lib : gpio.obj (.const:g_pui32GPIOBaseAddrs)
                  0001e4e8    0000006c     Boot.aem4f : Boot_sysctl.oem4f (.const:g_pui32Xtals)
                  0001e554    00000054     drivers_tivaware.aem4f : GPIOTiva.oem4f (.const:.string)
                  0001e5a8    00000054     stk6.aem4f : sockprot.oem4f (.const:Code2Err)
                  0001e5fc    00000048     drivers_tivaware.aem4f : GPIOTiva.oem4f (.const:gpioBaseAddresses)
                  0001e644    0000003e     stk6.aem4f : rtc.oem4f (.const:.string)
                  0001e682    00000002     httpget_pem4f.oem4f (.const:ti_sysbios_hal_Hwi_Module__id__C)
                  0001e684    0000003c     httpget_pem4f.oem4f (.const:ti_sysbios_knl_Task_Object__PARAMS__C)
                  0001e6c0    00000030     Boot.aem4f : Boot_sysctl.oem4f (.const:g_sXTALtoMEMTIM)
                  0001e6f0    00000030     httpget_pem4f.oem4f (.const:ti_sysbios_family_arm_m3_Hwi_Object__PARAMS__C)
                  0001e720    00000028     httpget_pem4f.oem4f (.const:ti_sysbios_heaps_HeapMem_Module__FXNS__C)
                  0001e748    00000028     httpget_pem4f.oem4f (.const:ti_sysbios_knl_Swi_Object__PARAMS__C)
                  0001e770    00000024     stk6.aem4f : ipv6.oem4f (.const)
                  0001e794    00000024     httpget_pem4f.oem4f (.const:ti_sysbios_gates_GateHwi_Module__FXNS__C)
                  0001e7b8    00000024     httpget_pem4f.oem4f (.const:ti_sysbios_gates_GateMutex_Module__FXNS__C)
                  0001e7dc    00000024     httpget_pem4f.oem4f (.const:ti_sysbios_heaps_HeapMem_Object__PARAMS__C)
                  0001e800    00000024     httpget_pem4f.oem4f (.const:ti_sysbios_knl_Clock_Object__PARAMS__C)
                  0001e824    00000024     httpget_pem4f.oem4f (.const:ti_sysbios_knl_Semaphore_Object__PARAMS__C)
                  0001e848    00000020     nettool.aem4f : inetaddr.oem4f (.const)
                  0001e868    00000020     httpget_pem4f.oem4f (.const:ti_sysbios_family_arm_m3_Hwi_Object__DESC__C)
                  0001e888    00000020     httpget_pem4f.oem4f (.const:ti_sysbios_gates_GateHwi_Object__DESC__C)
                  0001e8a8    00000020     httpget_pem4f.oem4f (.const:ti_sysbios_gates_GateMutex_Object__DESC__C)
                  0001e8c8    00000020     httpget_pem4f.oem4f (.const:ti_sysbios_heaps_HeapMem_Object__DESC__C)
                  0001e8e8    00000020     httpget_pem4f.oem4f (.const:ti_sysbios_knl_Clock_Object__DESC__C)
                  0001e908    00000020     httpget_pem4f.oem4f (.const:ti_sysbios_knl_Queue_Object__DESC__C)
                  0001e928    00000020     httpget_pem4f.oem4f (.const:ti_sysbios_knl_Semaphore_Object__DESC__C)
                  0001e948    00000020     httpget_pem4f.oem4f (.const:ti_sysbios_knl_Swi_Object__DESC__C)
                  0001e968    00000020     httpget_pem4f.oem4f (.const:ti_sysbios_knl_Task_Object__DESC__C)
                  0001e988    00000020     httpget_pem4f.oem4f (.const:xdc_runtime_Startup_sfxnTab__A)
                  0001e9a8    00000018     httpget.obj (.const:$P$T0$1)
                  0001e9c0    00000018     EK_TM4C1294XL.obj (.const:EMAC_config)
                  0001e9d8    00000018     driverlib.lib : emac.obj (.const)
                  0001e9f0    00000018     httpget_pem4f.oem4f (.const)
                  0001ea08    00000018     httpget_pem4f.oem4f (.const:ti_sysbios_gates_GateHwi_Object__PARAMS__C)
                  0001ea20    00000018     httpget_pem4f.oem4f (.const:ti_sysbios_gates_GateMutex_Object__PARAMS__C)
                  0001ea38    00000018     httpget_pem4f.oem4f (.const:ti_sysbios_knl_Queue_Object__PARAMS__C)
                  0001ea50    00000018     httpget_pem4f.oem4f (.const:ti_sysbios_knl_Task_hooks__A)
                  0001ea68    00000014     EK_TM4C1294XL.obj (.const:GPIOTiva_config)
                  0001ea7c    00000014     httpget_pem4f.oem4f (.const:xdc_runtime_Startup_firstFxns__A)
                  0001ea90    00000010     EK_TM4C1294XL.obj (.const:emacHWAttrs)
                  0001eaa0    00000010     httpget_pem4f.oem4f (.const:xdc_runtime_Startup_sfxnRts__A)
                  0001eab0    00000008     http_ndk.aem4f : httpcli.oem4f (.const:.string)
                  0001eab8    00000008     Boot.aem4f : Boot_sysctl.oem4f (.const)
                  0001eac0    00000008     drivers_tivaware.aem4f : EMACSnow.oem4f (.const)
                  0001eac8    00000008     httpget_pem4f.oem4f (.const:ti_sysbios_family_arm_m3_Hwi_excHookFuncs__A)
                  0001ead0    00000008     httpget_pem4f.oem4f (.const:ti_sysbios_knl_Idle_funcList__A)
                  0001ead8    00000008     httpget_pem4f.oem4f (.const:ti_sysbios_knl_Idle_funcList__C)
                  0001eae0    00000008     httpget_pem4f.oem4f (.const:ti_sysbios_knl_Task_hooks__C)
                  0001eae8    00000008     httpget_pem4f.oem4f (.const:xdc_runtime_Startup_firstFxns__C)
                  0001eaf0    00000008     httpget_pem4f.oem4f (.const:xdc_runtime_Startup_lastFxns__C)
                  0001eaf8    00000004     httpget_pem4f.oem4f (.const:ti_catalog_arm_cortexm4_tiva_ce_Boot_A_mustNotUseEnhancedClockMode__C)
                  0001eafc    00000004     httpget_pem4f.oem4f (.const:ti_catalog_arm_cortexm4_tiva_ce_Boot_Module__diagsEnabled__C)
                  0001eb00    00000004     httpget_pem4f.oem4f (.const:ti_catalog_arm_cortexm4_tiva_ce_Boot_Module__diagsIncluded__C)
                  0001eb04    00000004     httpget_pem4f.oem4f (.const:ti_catalog_arm_cortexm4_tiva_ce_Boot_Module__diagsMask__C)
                  0001eb08    00000004     httpget_pem4f.oem4f (.const:ti_sysbios_family_arm_lm4_Timer_enableFunc__C)
                  0001eb0c    00000004     httpget_pem4f.oem4f (.const:ti_sysbios_family_arm_lm4_Timer_numTimerDevices__C)
                  0001eb10    00000004     httpget_pem4f.oem4f (.const:ti_sysbios_family_arm_lm4_Timer_startupNeeded__C)
                  0001eb14    00000004     httpget_pem4f.oem4f (.const:ti_sysbios_family_arm_m3_Hwi_E_NMI__C)
                  0001eb18    00000004     httpget_pem4f.oem4f (.const:ti_sysbios_family_arm_m3_Hwi_E_alreadyDefined__C)
                  0001eb1c    00000004     httpget_pem4f.oem4f (.const:ti_sysbios_family_arm_m3_Hwi_E_busFault__C)
                  0001eb20    00000004     httpget_pem4f.oem4f (.const:ti_sysbios_family_arm_m3_Hwi_E_debugMon__C)
                  0001eb24    00000004     httpget_pem4f.oem4f (.const:ti_sysbios_family_arm_m3_Hwi_E_hardFault__C)
                  0001eb28    00000004     httpget_pem4f.oem4f (.const:ti_sysbios_family_arm_m3_Hwi_E_memFault__C)
                  0001eb2c    00000004     httpget_pem4f.oem4f (.const:ti_sysbios_family_arm_m3_Hwi_E_noIsr__C)
                  0001eb30    00000004     httpget_pem4f.oem4f (.const:ti_sysbios_family_arm_m3_Hwi_E_reserved__C)
                  0001eb34    00000004     httpget_pem4f.oem4f (.const:ti_sysbios_family_arm_m3_Hwi_E_svCall__C)
                  0001eb38    00000004     httpget_pem4f.oem4f (.const:ti_sysbios_family_arm_m3_Hwi_E_usageFault__C)
                  0001eb3c    00000004     httpget_pem4f.oem4f (.const:ti_sysbios_family_arm_m3_Hwi_NUM_INTERRUPTS__C)
                  0001eb40    00000004     httpget_pem4f.oem4f (.const:ti_sysbios_family_arm_m3_Hwi_Object__count__C)
                  0001eb44    00000004     httpget_pem4f.oem4f (.const:ti_sysbios_family_arm_m3_Hwi_ccr__C)
                  0001eb48    00000004     httpget_pem4f.oem4f (.const:ti_sysbios_family_arm_m3_Hwi_excHandlerFunc__C)
                  0001eb4c    00000004     httpget_pem4f.oem4f (.const:ti_sysbios_family_arm_m3_Hwi_excHookFuncs__C)
                  0001eb50    00000004     httpget_pem4f.oem4f (.const:ti_sysbios_family_arm_m3_Hwi_nullIsrFunc__C)
                  0001eb54    00000004     httpget_pem4f.oem4f (.const:ti_sysbios_family_arm_m3_Hwi_priGroup__C)
                  0001eb58    00000004     httpget_pem4f.oem4f (.const:ti_sysbios_family_arm_m3_TaskSupport_stackAlignment__C)
                  0001eb5c    00000004     httpget_pem4f.oem4f (.const:ti_sysbios_gates_GateMutex_Instance_State_sem__O)
                  0001eb60    00000004     httpget_pem4f.oem4f (.const:ti_sysbios_hal_Hwi_E_stackOverflow__C)
                  0001eb64    00000004     httpget_pem4f.oem4f (.const:ti_sysbios_heaps_HeapMem_E_memory__C)
                  0001eb68    00000004     httpget_pem4f.oem4f (.const:ti_sysbios_heaps_HeapMem_Module__gateObj__C)
                  0001eb6c    00000004     httpget_pem4f.oem4f (.const:ti_sysbios_heaps_HeapMem_Object__count__C)
                  0001eb70    00000004     httpget_pem4f.oem4f (.const:ti_sysbios_heaps_HeapMem_reqAlign__C)
                  0001eb74    00000004     httpget_pem4f.oem4f (.const:ti_sysbios_knl_Clock_Module_State_clockQ__O)
                  0001eb78    00000004     httpget_pem4f.oem4f (.const:ti_sysbios_knl_Semaphore_Instance_State_pendQ__O)
                  0001eb7c    00000004     httpget_pem4f.oem4f (.const:ti_sysbios_knl_Swi_Object__count__C)
                  0001eb80    00000004     httpget_pem4f.oem4f (.const:ti_sysbios_knl_Task_E_deleteNotAllowed__C)
                  0001eb84    00000004     httpget_pem4f.oem4f (.const:ti_sysbios_knl_Task_E_spOutOfBounds__C)
                  0001eb88    00000004     httpget_pem4f.oem4f (.const:ti_sysbios_knl_Task_E_stackOverflow__C)
                  0001eb8c    00000004     httpget_pem4f.oem4f (.const:ti_sysbios_knl_Task_Module_State_inactiveQ__O)
                  0001eb90    00000004     httpget_pem4f.oem4f (.const:ti_sysbios_knl_Task_Module_State_terminatedQ__O)
                  0001eb94    00000004     httpget_pem4f.oem4f (.const:ti_sysbios_knl_Task_Object__count__C)
                  0001eb98    00000004     httpget_pem4f.oem4f (.const:ti_sysbios_knl_Task_Object__heap__C)
                  0001eb9c    00000004     httpget_pem4f.oem4f (.const:ti_sysbios_knl_Task_allBlockedFunc__C)
                  0001eba0    00000004     httpget_pem4f.oem4f (.const:ti_sysbios_knl_Task_defaultStackHeap__C)
                  0001eba4    00000004     httpget_pem4f.oem4f (.const:ti_sysbios_knl_Task_defaultStackSize__C)
                  0001eba8    00000004     httpget_pem4f.oem4f (.const:ti_sysbios_knl_Task_numConstructedTasks__C)
                  0001ebac    00000004     httpget_pem4f.oem4f (.const:xdc_runtime_Assert_E_assertFailed__C)
                  0001ebb0    00000004     httpget_pem4f.oem4f (.const:xdc_runtime_Core_A_initializedParams__C)
                  0001ebb4    00000004     httpget_pem4f.oem4f (.const:xdc_runtime_Core_Module__diagsEnabled__C)
                  0001ebb8    00000004     httpget_pem4f.oem4f (.const:xdc_runtime_Core_Module__diagsIncluded__C)
                  0001ebbc    00000004     httpget_pem4f.oem4f (.const:xdc_runtime_Core_Module__diagsMask__C)
                  0001ebc0    00000004     httpget_pem4f.oem4f (.const:xdc_runtime_Error_E_memory__C)
                  0001ebc4    00000004     httpget_pem4f.oem4f (.const:xdc_runtime_Error_Module__diagsEnabled__C)
                  0001ebc8    00000004     httpget_pem4f.oem4f (.const:xdc_runtime_Error_Module__diagsIncluded__C)
                  0001ebcc    00000004     httpget_pem4f.oem4f (.const:xdc_runtime_Error_Module__diagsMask__C)
                  0001ebd0    00000004     httpget_pem4f.oem4f (.const:xdc_runtime_Error_Module__loggerFxn8__C)
                  0001ebd4    00000004     httpget_pem4f.oem4f (.const:xdc_runtime_Error_Module__loggerObj__C)
                  0001ebd8    00000004     httpget_pem4f.oem4f (.const:xdc_runtime_Error_policyFxn__C)
                  0001ebdc    00000004     httpget_pem4f.oem4f (.const:xdc_runtime_Error_raiseHook__C)
                  0001ebe0    00000004     httpget_pem4f.oem4f (.const:xdc_runtime_IGateProvider_Interface__BASE__C)
                  0001ebe4    00000004     httpget_pem4f.oem4f (.const:xdc_runtime_IHeap_Interface__BASE__C)
                  0001ebe8    00000004     httpget_pem4f.oem4f (.const:xdc_runtime_IModule_Interface__BASE__C)
                  0001ebec    00000004     httpget_pem4f.oem4f (.const:xdc_runtime_Log_L_error__C)
                  0001ebf0    00000004     httpget_pem4f.oem4f (.const:xdc_runtime_Memory_defaultHeapInstance__C)
                  0001ebf4    00000004     httpget_pem4f.oem4f (.const:xdc_runtime_Startup_execImpl__C)
                  0001ebf8    00000004     httpget_pem4f.oem4f (.const:xdc_runtime_Startup_maxPasses__C)
                  0001ebfc    00000004     httpget_pem4f.oem4f (.const:xdc_runtime_Startup_sfxnRts__C)
                  0001ec00    00000004     httpget_pem4f.oem4f (.const:xdc_runtime_Startup_sfxnTab__C)
                  0001ec04    00000004     httpget_pem4f.oem4f (.const:xdc_runtime_SysMin_bufSize__C)
                  0001ec08    00000004     httpget_pem4f.oem4f (.const:xdc_runtime_SysMin_outputFunc__C)
                  0001ec0c    00000004     httpget_pem4f.oem4f (.const:xdc_runtime_System_Module__gateObj__C)
                  0001ec10    00000004     httpget_pem4f.oem4f (.const:xdc_runtime_System_abortFxn__C)
                  0001ec14    00000004     httpget_pem4f.oem4f (.const:xdc_runtime_System_exitFxn__C)
                  0001ec18    00000004     httpget_pem4f.oem4f (.const:xdc_runtime_System_extendFxn__C)
                  0001ec1c    00000004     httpget_pem4f.oem4f (.const:xdc_runtime_System_maxAtexitHandlers__C)
                  0001ec20    00000004     httpget_pem4f.oem4f (.const:xdc_runtime_Text_charTab__C)
                  0001ec24    00000004     httpget_pem4f.oem4f (.const:xdc_runtime_Text_nameEmpty__C)
                  0001ec28    00000004     httpget_pem4f.oem4f (.const:xdc_runtime_Text_nameStatic__C)
                  0001ec2c    00000004     httpget_pem4f.oem4f (.const:xdc_runtime_Text_nameUnknown__C)
                  0001ec30    00000004     httpget_pem4f.oem4f (.const:xdc_runtime_Text_nodeTab__C)
                  0001ec34    00000004     httpget_pem4f.oem4f (.const:xdc_runtime_Text_visitRopeFxn__C)
                  0001ec38    00000002     httpget_pem4f.oem4f (.const:ti_sysbios_heaps_HeapMem_Module__id__C)
                  0001ec3a    00000002     httpget_pem4f.oem4f (.const:ti_sysbios_knl_Task_Module__id__C)
                  0001ec3c    00000002     httpget_pem4f.oem4f (.const:xdc_runtime_Core_Module__id__C)
                  0001ec3e    00000002     httpget_pem4f.oem4f (.const:xdc_runtime_Error_Module__loggerDefined__C)
                  0001ec40    00000002     httpget_pem4f.oem4f (.const:xdc_runtime_Error_maxDepth__C)
                  0001ec42    00000002     httpget_pem4f.oem4f (.const:xdc_runtime_Memory_Module__id__C)
                  0001ec44    00000002     httpget_pem4f.oem4f (.const:xdc_runtime_SysMin_flushAtExit__C)
                  0001ec46    00000002     httpget_pem4f.oem4f (.const:xdc_runtime_Text_charCnt__C)
                  0001ec48    00000002     httpget_pem4f.oem4f (.const:xdc_runtime_Text_isLoaded__C)
                  0001ec4a    00000002     httpget_pem4f.oem4f (.const:xdc_runtime_Text_registryModsLastId__C)
                  0001ec4c    00000002     httpget_pem4f.oem4f (.const:xdc_runtime_Text_unnamedModsLastId__C)

.cinit     0    0001ec50    000004e8     
                  0001ec50    000004ad     (.cinit..data.load) [load image, compression = lzss]
                  0001f0fd    00000003     --HOLE-- [fill = 0]
                  0001f100    0000000c     (__TI_handler_table)
                  0001f10c    00000004     --HOLE-- [fill = 0]
                  0001f110    00000008     (.cinit..bss.load) [load image, compression = zero_init]
                  0001f118    00000008     (.cinit..vecs.load) [load image, compression = zero_init]
                  0001f120    00000018     (__TI_cinit_table)

.init_array 
*          0    00000000    00000000     UNINITIALIZED

.resetVecs 
*          0    00000000    0000003c     
                  00000000    0000003c     httpget_pem4f.oem4f (.resetVecs)

.bss       0    20000380    0000eef0     UNINITIALIZED
                  20000380    00005000     (.common:ti_sysbios_heaps_HeapMem_Instance_State_0_buf__A)
                  20005380    000048a8     httpget_pem4f.oem4f (.bss:NDK_MMBUFFER)
                  20009c28    00000058     stk6.aem4f : ipv6.oem4f (.bss:ipv6mcb)
                  20009c80    00003fe8     httpget_pem4f.oem4f (.bss:NDK_PACKETMEM)
                  2000dc68    00000800     httpget_pem4f.oem4f (.bss:taskStackSection)
                  2000e468    00000360     (.common:ti_sysbios_family_arm_m3_Hwi_dispatchTable)
                  2000e7c8    00000120     rtsv7M4_T_le_v4SPD16_eabi.lib : trgmsg.c.obj (.bss:_CIOBUF_)
                  2000e8e8    00000100     stk6.aem4f : igmp.oem4f (.bss:igmp)
                  2000e9e8    000000b8                : tcp6in.oem4f (.bss:tcp6_stats)
                  2000eaa0    000000b8                : tcp.oem4f (.bss:tcps)
                  2000eb58    000000b4     netctrl_min.aem4f : netsrv.oem4f (.bss:ipcfgcopy)
                  2000ec0c    00000090     drivers_tivaware.aem4f : EMACSnow.oem4f (.bss:g_pRxDescriptors)
                  2000ec9c    00000090                            : EMACSnow.oem4f (.bss:g_pTxDescriptors)
                  2000ed2c    00000090                            : GPIOTiva.oem4f (.bss:gpioCallbackInfo)
                  2000edbc    00000080     (.common:xdc_runtime_SysMin_Module_State_0_outbuf__A)
                  2000ee3c    00000068     stk6.aem4f : ip.oem4f (.bss:ips)
                  2000eea4    00000064                : nimu.oem4f (.bss:nimu_mcb)
                  2000ef08    0000004c                : icmp.oem4f (.bss:_ICMPIn)
                  2000ef54    0000004c                : icmp.oem4f (.bss:_ICMPOut)
                  2000efa0    00000040     drivers_tivaware.aem4f : EMACSnow.oem4f (.bss:EMACSnow_private)
                  2000efe0    00000028     stk6.aem4f : vlan.oem4f (.bss:vlan_mcb)
                  2000f008    00000024     netctrl_min.aem4f : netsrv.oem4f (.bss:oscfgcopy)
                  2000f02c    00000024     stk6.aem4f : udp6.oem4f (.bss:udp6_stats)
                  2000f050    00000024                : udp.oem4f (.bss:udps)
                  2000f074    0000001c     (.common:BlockCount)
                  2000f090    0000001c     (.common:BlockMax)
                  2000f0ac    0000001c     (.common:PageCount)
                  2000f0c8    0000001c     (.common:PageMax)
                  2000f0e4    00000018     (.common:icmp6stats)
                  2000f0fc    00000018     (.common:stkEvent)
                  2000f114    00000014     (.common:pfnHook)
                  2000f128    00000010     (.common:IPV6_ALL_NODES_ADDRESS)
                  2000f138    00000010     (.common:IPV6_ALL_ROUTER_ADDRESS)
                  2000f148    00000010     (.common:IPV6_HOST_MASK)
                  2000f158    00000010     (.common:IPV6_LINKLOCALMASK)
                  2000f168    00000010     (.common:IPV6_LOOPBACK_ADDRESS)
                  2000f178    00000010     (.common:IPV6_MULTICASTMASK)
                  2000f188    00000010     (.common:IPV6_UNSPECIFIED_ADDRESS)
                  2000f198    00000010     (.common:igmpCount)
                  2000f1a8    00000010     (.common:raw6_stats)
                  2000f1b8    00000010     (.common:raweths)
                  2000f1c8    00000010     (.common:raws)
                  2000f1d8    0000000c     (.common:PBMQ_free)
                  2000f1e4    0000000c     (.common:tpseudo)
                  2000f1f0    0000000c     (.common:upseudo)
                  2000f1fc    00000008     (.common:emacObjects)
                  2000f204    00000008     (.common:parmbuf)
                  2000f20c    00000004     httpget.obj (.bss)
                  2000f210    00000004     (.common:IPCache)
                  2000f214    00000004     (.common:IPTrialAddress)
                  2000f218    00000004     (.common:LastCLKTime)
                  2000f21c    00000004     (.common:LastCLKValid)
                  2000f220    00000004     (.common:NetHaltFlag)
                  2000f224    00000004     (.common:NetReturnCode)
                  2000f228    00000004     (.common:TimeMS)
                  2000f22c    00000004     (.common:TimeS)
                  2000f230    00000004     (.common:TimeStart)
                  2000f234    00000004     (.common:_IGMPInDiscard)
                  2000f238    00000004     (.common:_IGMPInQuery)
                  2000f23c    00000004     (.common:_IGMPInQueryGroup)
                  2000f240    00000004     (.common:_IGMPInResponse)
                  2000f244    00000004     (.common:_IGMPOutResponse)
                  2000f248    00000004     (.common:g_ulStatus)
                  2000f24c    00000004     (.common:gpioInterruptVectors)
                  2000f250    00000004     (.common:hEvent)
                  2000f254    00000004     (.common:hIPv6ReasmTimer)
                  2000f258    00000004     (.common:hLLI6Timer)
                  2000f25c    00000004     (.common:hTimer$1)
                  2000f260    00000004     (.common:hTimer$1)
                  2000f264    00000004     (.common:raweth_pcb)
                  2000f268    00000004     (.common:ti_sysbios_knl_Task_Instance_State_0_hookEnv__A)
                  2000f26c    00000004     (.common:ti_sysbios_knl_Task_Instance_State_1_hookEnv__A)

.data      0    2000f270    00000a34     UNINITIALIZED
                  2000f270    0000011c     http_ndk.aem4f : httpstd.oem4f (.data)
                  2000f38c    000000b4     stk6.aem4f : exec.oem4f (.data:_ipcfg)
                  2000f440    00000098     httpget_pem4f.oem4f (.data:ti_sysbios_knl_Task_Object__table__V)
                  2000f4d8    00000080     httpget_pem4f.oem4f (.data:ti_sysbios_knl_Swi_Module_State_0_readyQ__A)
                  2000f558    00000080     httpget_pem4f.oem4f (.data:ti_sysbios_knl_Task_Module_State_0_readyQ__A)
                  2000f5d8    00000050     stk6.aem4f : exec.oem4f (.data:tasks)
                  2000f628    0000004d     nettool.aem4f : dhcptags.oem4f (.data:DHCPTypeCode)
                  2000f675    00000001     --HOLE--
                  2000f676    00000002                   : dnscomn.oem4f (.data)
                  2000f678    00000044     httpget_pem4f.oem4f (.data:ti_sysbios_knl_Task_Module__state__V)
                  2000f6bc    00000040     netctrl_min.aem4f : netsrv.oem4f (.data:CloseOrder)
                  2000f6fc    00000040                       : netsrv.oem4f (.data:OpenOrder)
                  2000f73c    00000040     httpget_pem4f.oem4f (.data:ti_sysbios_family_arm_lm4_Timer_Module_State_0_device__A)
                  2000f77c    00000040     httpget_pem4f.oem4f (.data:ti_sysbios_family_arm_lm4_Timer_Object__table__V)
                  2000f7bc    00000038     httpget_pem4f.oem4f (.data:ti_sysbios_gates_GateMutex_Object__table__V)
                  2000f7f4    00000034     stk6.aem4f : tcp6time.oem4f (.data:tcp_backoff)
                  2000f828    00000034                : tcptime.oem4f (.data:tcp_backoff)
                  2000f85c    00000034     httpget_pem4f.oem4f (.data:ti_sysbios_family_arm_m3_Hwi_Module__state__V)
                  2000f890    00000032     drivers_tivaware.aem4f : EMACSnow.oem4f (.data)
                  2000f8c2    00000002     httpget_pem4f.oem4f (.data:ti_sysbios_family_arm_m3_Hwi_Module_State_0_excActive__A)
                  2000f8c4    00000030     httpget_pem4f.oem4f (.data:ti_sysbios_knl_Swi_Object__table__V)
                  2000f8f4    0000002c     httpget_pem4f.oem4f (.data:ti_sysbios_knl_Clock_Module__state__V)
                  2000f920    00000028     stk6.aem4f : rtc.oem4f (.data)
                  2000f948    00000024     os.aem4f : ossys.oem4f (.data:_oscfg)
                  2000f96c    00000024              : mem.oem4f (.data)
                  2000f990    00000024     httpget_pem4f.oem4f (.data:ti_sysbios_BIOS_Module__state__V)
                  2000f9b4    00000020     httpget_pem4f.oem4f (.data:ti_sysbios_family_arm_lm4_Timer_Module_State_0_handles__A)
                  2000f9d4    0000001c     netctrl_min.aem4f : netctrl.oem4f (.data)
                  2000f9f0    0000001c     httpget_pem4f.oem4f (.data:ti_ndk_config_Global_Id2Size)
                  2000fa0c    0000001c     httpget_pem4f.oem4f (.data:ti_sysbios_knl_Swi_Module__state__V)
                  2000fa28    00000018     httpget_pem4f.oem4f (.data:TaskName)
                  2000fa40    00000018     os.aem4f : task.oem4f (.data)
                  2000fa58    00000018     stk6.aem4f : sock6pcb.oem4f (.data)
                  2000fa70    00000018                : sockpcb.oem4f (.data)
                  2000fa88    00000018     httpget_pem4f.oem4f (.data:ti_sysbios_family_arm_m3_Hwi_Object__table__V)
                  2000faa0    00000018     httpget_pem4f.oem4f (.data:ti_sysbios_heaps_HeapMem_Object__table__V)
                  2000fab8    00000014     httpget_pem4f.oem4f (.data:ReportStr)
                  2000facc    00000014     httpget_pem4f.oem4f (.data:StatusStr)
                  2000fae0    00000014     stk6.aem4f : rtable.oem4f (.data)
                  2000faf4    00000010     EK_TM4C1294XL.obj (.data:gpioPinConfigs)
                  2000fb04    00000010     http_ndk.aem4f : httpcli.oem4f (.data)
                  2000fb14    00000010     stk6.aem4f : bind6.oem4f (.data)
                  2000fb24    00000010                : igmp.oem4f (.data)
                  2000fb34    0000000c                : route6.oem4f (.data)
                  2000fb40    0000000c     httpget_pem4f.oem4f (.data:ti_sysbios_family_arm_lm4_Timer_Module__state__V)
                  2000fb4c    0000000c     httpget_pem4f.oem4f (.data:xdc_runtime_SysMin_Module__state__V)
                  2000fb58    0000000b     stk6.aem4f : tcp6out.oem4f (.data)
                  2000fb63    0000000b                : tcpout.oem4f (.data)
                  2000fb6e    00000002     httpget_pem4f.oem4f (.data:xdc_runtime_Error_Module__state__V)
                  2000fb70    00000008     rtsv7M4_T_le_v4SPD16_eabi.lib : _lock.c.obj (.data:$O1$$)
                  2000fb78    00000008     EK_TM4C1294XL.obj (.data:NIMUDeviceTable)
                  2000fb80    00000008     EK_TM4C1294XL.obj (.data:gpioCallbackFunctions)
                  2000fb88    00000008     httpget_pem4f.oem4f (.data)
                  2000fb90    00000008     netctrl_min.aem4f : netsrv.oem4f (.data)
                  2000fb98    00000008     stk6.aem4f : exec.oem4f (.data)
                  2000fba0    00000008                : icmp.oem4f (.data)
                  2000fba8    00000008                : ip.oem4f (.data)
                  2000fbb0    00000008                : ipin.oem4f (.data)
                  2000fbb8    00000008                : ipv6_frag.oem4f (.data)
                  2000fbc0    00000008                : lli.oem4f (.data)
                  2000fbc8    00000008                : tcp.oem4f (.data)
                  2000fbd0    00000008                : tcp6.oem4f (.data)
                  2000fbd8    00000008                : timer.oem4f (.data)
                  2000fbe0    00000008     httpget_pem4f.oem4f (.data:ti_sysbios_family_arm_m3_Hwi_Module__root__V)
                  2000fbe8    00000008     httpget_pem4f.oem4f (.data:ti_sysbios_gates_GateHwi_Module__root__V)
                  2000fbf0    00000008     httpget_pem4f.oem4f (.data:ti_sysbios_gates_GateMutex_Module__root__V)
                  2000fbf8    00000008     httpget_pem4f.oem4f (.data:ti_sysbios_heaps_HeapMem_Module__root__V)
                  2000fc00    00000008     httpget_pem4f.oem4f (.data:ti_sysbios_knl_Clock_Module__root__V)
                  2000fc08    00000008     httpget_pem4f.oem4f (.data:ti_sysbios_knl_Queue_Module__root__V)
                  2000fc10    00000008     httpget_pem4f.oem4f (.data:ti_sysbios_knl_Semaphore_Module__root__V)
                  2000fc18    00000008     httpget_pem4f.oem4f (.data:ti_sysbios_knl_Swi_Module__root__V)
                  2000fc20    00000008     httpget_pem4f.oem4f (.data:ti_sysbios_knl_Task_Module__root__V)
                  2000fc28    00000008     httpget_pem4f.oem4f (.data:xdc_runtime_Registry_Module__state__V)
                  2000fc30    00000008     httpget_pem4f.oem4f (.data:xdc_runtime_Startup_Module__state__V)
                  2000fc38    00000008     httpget_pem4f.oem4f (.data:xdc_runtime_System_Module_State_0_atexitHandlers__A)
                  2000fc40    00000008     httpget_pem4f.oem4f (.data:xdc_runtime_System_Module__state__V)
                  2000fc48    00000006     EK_TM4C1294XL.obj (.data:macAddress)
                  2000fc4e    00000006     stk6.aem4f : lliout.oem4f (.data)
                  2000fc54    00000005     drivers_tivaware.aem4f : GPIOTiva.oem4f (.data)
                  2000fc59    00000003     --HOLE--
                  2000fc5c    00000004                            : EMAC.oem4f (.data)
                  2000fc60    00000004     hal_timer_bios.aem4f : lltimer.oem4f (.data)
                  2000fc64    00000004     nettool.aem4f : config.oem4f (.data)
                  2000fc68    00000004     rtsv7M4_T_le_v4SPD16_eabi.lib : errno.c.obj (.data)
                  2000fc6c    00000004                                   : stkdepth_vars.c.obj (.data)
                  2000fc70    00000004                                   : strtok.c.obj (.data)
                  2000fc74    00000004     stk6.aem4f : bind.oem4f (.data)
                  2000fc78    00000004                : ipfrag.oem4f (.data)
                  2000fc7c    00000004                : lli6.oem4f (.data)
                  2000fc80    00000004                : lliin.oem4f (.data)
                  2000fc84    00000004                : mld.oem4f (.data)
                  2000fc88    00000004                : node.oem4f (.data)
                  2000fc8c    00000004                : pbm.oem4f (.data)
                  2000fc90    00000004     httpget_pem4f.oem4f (.data:ti_sysbios_family_arm_m3_Hwi_Module_State_0_excContext__A)
                  2000fc94    00000004     httpget_pem4f.oem4f (.data:ti_sysbios_family_arm_m3_Hwi_Module_State_0_excStack__A)
                  2000fc98    00000004     httpget_pem4f.oem4f (.data:ti_sysbios_gates_GateHwi_Object__table__V)
                  2000fc9c    00000004     httpget_pem4f.oem4f (.data:ti_sysbios_knl_Task_Module_State_0_idleTask__A)
                  2000fca0    00000004     httpget_pem4f.oem4f (.data:xdc_runtime_Memory_Module__state__V)

.stack     0    2000fca8    00000800     UNINITIALIZED
                  2000fca8    00000800     --HOLE--

.bootVecs 
*          0    00000000    00000008     DSECT
                  00000000    00000008     boot.aem4f : boot.oem4f (.bootVecs)

.vecs      0    20000000    00000360     UNINITIALIZED
                  20000000    00000360     httpget_pem4f.oem4f (.vecs)

xdc.meta   0    00000000    000000eb     COPY SECTION
                  00000000    000000eb     httpget_pem4f.oem4f (xdc.meta)

__llvm_prf_cnts 
*          0    20000000    00000000     UNINITIALIZED

MODULE SUMMARY

       Module                       code     ro data   rw data
       ------                       ----     -------   -------
    .\
       httpget.obj                  950      24        4      
       EK_TM4C1294XL.obj            404      60        46     
    +--+----------------------------+--------+---------+---------+
       Total:                       1354     84        50     
                                                              
    C:\Users\14169\workspace_v10\enet_httpget_tirtos\Debug\configPkg\package\cfg\
       httpget_pem4f.oem4f          2919     8147      60552  
    +--+----------------------------+--------+---------+---------+
       Total:                       2919     8147      60552  
                                                              
    C:/ti/tirtos_tivac_2_16_01_14/products/TivaWare_C_Series-2.1.1.71b/driverlib/ccs/Debug/driverlib.lib
       emac.obj                     756      24        0      
       gpio.obj                     548      144       0      
       sysctl.obj                   194      0         0      
       flash.obj                    20       0         0      
    +--+----------------------------+--------+---------+---------+
       Total:                       1518     168       0      
                                                              
    C:/ti/tirtos_tivac_2_16_01_14/products/tidrivers_tivac_2_16_01_13/packages/ti/drivers/lib/drivers_tivaware.aem4f
       EMACSnow.oem4f               2006     8         406    
       GPIOTiva.oem4f               764      156       153    
       EMAC.oem4f                   52       0         4      
    +--+----------------------------+--------+---------+---------+
       Total:                       2822     164       563    
                                                              
    C:\Users\14169\workspace_v10\enet_httpget_tirtos\src\sysbios\sysbios.aem4f
       BIOS.obj                     10122    0         0      
       m3_Hwi_asm.obj               314      0         0      
       m3_TaskSupport_asm.obj       180      0         0      
       m3_Hwi_asm_switch.obj        118      0         0      
    +--+----------------------------+--------+---------+---------+
       Total:                       10734    0         0      
                                                              
    C:\ti\ccs1031\ccs\tools\compiler\ti-cgt-arm_20.2.4.LTS\lib\rtsv7M4_T_le_v4SPD16_eabi.lib
       trgmsg.c.obj                 108      0         288    
       strtol.c.obj                 304      0         0      
       strtoul.c.obj                272      0         0      
       ctype.c.obj                  0        257       0      
       memcpy_t2.asm.obj            156      0         0      
       memset_t2.asm.obj            122      0         0      
       copy_decompress_lzss.c.obj   104      0         0      
       hostwrite.c.obj              88       0         0      
       atoi.c.obj                   76       0         0      
       cpy_tbl.c.obj                76       0         0      
       strtok.c.obj                 64       0         4      
       u_divt2.asm.obj              64       0         0      
       strncasecmp.c.obj            60       0         0      
       strncpy.c.obj                54       0         0      
       strcasecmp.c.obj             46       0         0      
       strncmp.c.obj                44       0         0      
       strspn.c.obj                 42       0         0      
       strcspn.c.obj                36       0         0      
       _lock.c.obj                  26       0         8      
       strcat.c.obj                 30       0         0      
       args_main.c.obj              24       0         0      
       strcmp.c.obj                 24       0         0      
       strchr.c.obj                 22       0         0      
       strcpy.c.obj                 20       0         0      
       strlen.c.obj                 20       0         0      
       copy_decompress_none.c.obj   14       0         0      
       copy_zero_init.c.obj         12       0         0      
       errno.c.obj                  8        0         4      
       hostopen.c.obj               0        0         8      
       exit.c.obj                   4        0         0      
       stkdepth_vars.c.obj          0        0         4      
       div0.asm.obj                 2        0         0      
    +--+----------------------------+--------+---------+---------+
       Total:                       1922     257       316    
                                                              
    C:\ti\tirtos_tivac_2_16_01_14\products\bios_6_45_02_31\packages\ti\catalog\arm\cortexm4\tiva\ce\lib\Boot.aem4f
       Boot_sysctl.oem4f            628      452       0      
       Boot.oem4f                   152      0         0      
    +--+----------------------------+--------+---------+---------+
       Total:                       780      452       0      
                                                              
    C:\ti\tirtos_tivac_2_16_01_14\products\bios_6_45_02_31\packages\ti\targets\arm\rtsarm\lib\auto_init.aem4f
       auto_init.oem4f              160      0         0      
    +--+----------------------------+--------+---------+---------+
       Total:                       160      0         0      
                                                              
    C:\ti\tirtos_tivac_2_16_01_14\products\bios_6_45_02_31\packages\ti\targets\arm\rtsarm\lib\boot.aem4f
       boot.oem4f                   88       0         0      
    +--+----------------------------+--------+---------+---------+
       Total:                       88       0         0      
                                                              
    C:\ti\tirtos_tivac_2_16_01_14\products\bios_6_45_02_31\packages\ti\targets\arm\rtsarm\lib\ti.targets.arm.rtsarm.aem4f
       System.oem4f                 1277     0         0      
       Text.oem4f                   672      0         0      
       Error.oem4f                  528      0         0      
       Core-mem.oem4f               358      0         0      
       Startup.oem4f                328      0         0      
       SysMin.oem4f                 248      0         0      
       Core-smem.oem4f              204      0         0      
       Memory.oem4f                 176      0         0      
       Assert.oem4f                 84       0         0      
       Core-params.oem4f            70       0         0      
       Core-label.oem4f             52       0         0      
       Registry.oem4f               32       0         0      
       Gate.oem4f                   28       0         0      
       xdc_noinit.oem4f             6        0         0      
    +--+----------------------------+--------+---------+---------+
       Total:                       4063     0         0      
                                                              
    C:\ti\tirtos_tivac_2_16_01_14\products\ndk_2_25_00_09\packages\ti\ndk\hal\ser_stub\lib\hal_ser_stub.aem4f
       llserstb.oem4f               10       0         0      
    +--+----------------------------+--------+---------+---------+
       Total:                       10       0         0      
                                                              
    C:\ti\tirtos_tivac_2_16_01_14\products\ndk_2_25_00_09\packages\ti\ndk\hal\timer_bios\lib\hal_timer_bios.aem4f
       lltimer.oem4f                252      0         28     
    +--+----------------------------+--------+---------+---------+
       Total:                       252      0         28     
                                                              
    C:\ti\tirtos_tivac_2_16_01_14\products\ndk_2_25_00_09\packages\ti\ndk\hal\userled_stub\lib\hal_userled_stub.aem4f
       llled.oem4f                  6        0         0      
    +--+----------------------------+--------+---------+---------+
       Total:                       6        0         0      
                                                              
    C:\ti\tirtos_tivac_2_16_01_14\products\ndk_2_25_00_09\packages\ti\ndk\netctrl\lib\netctrl_min.aem4f
       netsrv.oem4f                 1122     0         352    
       netctrl.oem4f                888      0         60     
    +--+----------------------------+--------+---------+---------+
       Total:                       2010     0         412    
                                                              
    C:\ti\tirtos_tivac_2_16_01_14\products\ndk_2_25_00_09\packages\ti\ndk\nettools\lib\nettool.aem4f
       dnscomn.oem4f                2964     0         2      
       inetaddr.oem4f               1827     32        0      
       config.oem4f                 1760     0         4      
       dnspkt.oem4f                 1352     0         0      
       dnsclnt.oem4f                1052     0         0      
       dhcpsm.oem4f                 1028     0         0      
       ipaddr.oem4f                 598      0         4      
       dhcpbild.oem4f               508      0         0      
       dhcppkt.oem4f                462      0         0      
       dhcpmain.oem4f               406      0         0      
       dhcptags.oem4f               264      0         77     
       dhcpsock.oem4f               332      0         0      
    +--+----------------------------+--------+---------+---------+
       Total:                       12553    32        87     
                                                              
    C:\ti\tirtos_tivac_2_16_01_14\products\ndk_2_25_00_09\packages\ti\ndk\os\lib\os.aem4f
       mem.oem4f                    1312     0         148    
       task.oem4f                   1054     0         24     
       ossys.oem4f                  192      0         36     
       semaphore.oem4f              226      0         0      
    +--+----------------------------+--------+---------+---------+
       Total:                       2784     0         208    
                                                              
    C:\ti\tirtos_tivac_2_16_01_14\products\ndk_2_25_00_09\packages\ti\ndk\stack\lib\stk6.aem4f
       tcp6in.oem4f                 3392     0         184    
       tcpin.oem4f                  3312     0         0      
       sock6.oem4f                  3288     0         0      
       icmpv6_ndisc.oem4f           3122     0         0      
       bind6.oem4f                  2786     0         16     
       sock.oem4f                   2736     0         0      
       tcp6out.oem4f                2608     0         11     
       tcpout.oem4f                 2608     0         11     
       route6.oem4f                 2264     0         12     
       sock6pcb.oem4f               1984     0         24     
       igmp.oem4f                   1584     0         308    
       lli6.oem4f                   1771     0         8      
       ipv6_frag.oem4f              1708     0         12     
       nimu.oem4f                   1565     0         100    
       ipv6.oem4f                   1336     36        200    
       icmpv6out.oem4f              1498     0         0      
       sockpcb.oem4f                1422     0         24     
       rtable.oem4f                 1138     0         24     
       icmpv6in.oem4f               1094     0         0      
       node.oem4f                   1079     0         4      
       tcpprot.oem4f                1082     0         0      
       tcp6prot.oem4f               1066     0         0      
       ipout.oem4f                  1032     0         0      
       udp.oem4f                    968      0         48     
       ipin.oem4f                   998      0         8      
       socket.oem4f                 972      0         0      
       udp6.oem4f                   928      0         36     
       tcp6time.oem4f               830      0         52     
       tcptime.oem4f                821      0         52     
       sb.oem4f                     826      0         0      
       sb6.oem4f                    772      0         0      
       icmpin.oem4f                 756      0         0      
       sock6int.oem4f               744      0         0      
       icmp.oem4f                   580      0         160    
       ipfrag.oem4f                 712      0         4      
       rtc.oem4f                    592      62        60     
       sockint.oem4f                704      0         0      
       route.oem4f                  702      0         0      
       exec.oem4f                   414      0         268    
       lliout.oem4f                 672      0         6      
       tcp.oem4f                    472      0         204    
       lli.oem4f                    652      0         8      
       bind.oem4f                   650      0         4      
       pbm.oem4f                    594      0         16     
       lliin.oem4f                  592      0         4      
       ipv6_exthdrs.oem4f           580      0         0      
       mld.oem4f                    564      0         4      
       rawethsock.oem4f             536      0         0      
       raw6.oem4f                   500      0         16     
       ipv6out.oem4f                508      0         0      
       ip.oem4f                     378      0         120    
       vlan.oem4f                   396      0         40     
       raw.oem4f                    400      0         16     
       file.oem4f                   412      0         0      
       pipe.oem4f                   410      0         0      
       tcp6.oem4f                   376      0         8      
       fileuser.oem4f               358      0         0      
       timer.oem4f                  258      0         8      
       ipv6in.oem4f                 244      0         0      
       raweth.oem4f                 224      0         16     
       rawethsock_pcb.oem4f         236      0         4      
       sockprot.oem4f               98       84        0      
       listlib.oem4f                142      0         0      
       sock6prot.oem4f              86       0         0      
       icmpv6.oem4f                 0        0         24     
       rawethsock_prot.oem4f        8        0         0      
       nat.oem4f                    2        0         0      
    +--+----------------------------+--------+---------+---------+
       Total:                       68142    182       2124   
                                                              
    C:\ti\tirtos_tivac_2_16_01_14\products\ns_1_11_00_10\packages\ti\net\http\lib\http_ndk.aem4f
       httpcli.oem4f                3116     8         16     
       httpstd.oem4f                0        880       284    
    +--+----------------------------+--------+---------+---------+
       Total:                       3116     888       300    
                                                              
    C:\ti\tirtos_tivac_2_16_01_14\products\ns_1_11_00_10\packages\ti\net\lib\network_ndk.aem4f
       ssock.oem4f                  276      0         0      
    +--+----------------------------+--------+---------+---------+
       Total:                       276      0         0      
                                                              
       Stack:                       0        0         2048   
       Linker Generated:            0        1249      0      
    +--+----------------------------+--------+---------+---------+
       Grand Total:                 115509   11623     66688  


LINKER GENERATED COPY TABLES

__TI_cinit_table @ 0001f120 records: 3, size/record: 8, table size: 24
	.data: load addr=0001ec50, load size=000004ad bytes, run addr=2000f270, run size=00000a34 bytes, compression=lzss
	.bss: load addr=0001f110, load size=00000008 bytes, run addr=20000380, run size=0000eef0 bytes, compression=zero_init
	.vecs: load addr=0001f118, load size=00000008 bytes, run addr=20000000, run size=00000360 bytes, compression=zero_init


LINKER GENERATED HANDLER TABLE

__TI_handler_table @ 0001f100 records: 3, size/record: 4, table size: 12
	index: 0, handler: __TI_decompress_lzss
	index: 1, handler: __TI_decompress_none
	index: 2, handler: __TI_zero_init


GLOBAL SYMBOLS: SORTED ALPHABETICALLY BY Name 

address   name                                                                 
-------   ----                                                                 
000102e5  Bind6DADCheck                                                        
00019f89  Bind6FindByHost                                                      
0001a965  Bind6FindByIF                                                        
00019fb9  Bind6FindByNet                                                       
0000b2b9  Bind6Free                                                            
000103b5  Bind6GetGlobalAddress                                                
0001c2a5  Bind6GetInterfaceHandle                                              
0001c2af  Bind6GetLifetime                                                     
00016e89  Bind6GetLinkLocalAddress                                             
0001b19d  Bind6IF2IPHost                                                       
00014cf1  Bind6Msg                                                             
000032e9  Bind6New                                                             
0000714b  Bind6SetLifetime                                                     
0001ad1d  BindFindByHost                                                       
0001b4f9  BindFindByIF                                                         
0001a98d  BindFindByNet                                                        
00016ee1  BindFree                                                             
0001c119  BindGetFirst                                                         
0000e73d  BindGetIF                                                            
0001ad41  BindGetIFByDBCast                                                    
0001b72d  BindGetIP                                                            
0000f195  BindGetNext                                                          
0001bf2d  BindIF2IPHost                                                        
0001bf3d  BindIFNet2IPHost                                                     
0001bcdf  BindIPHost2IF                                                        
0000a781  BindNew                                                              
2000f074  BlockCount                                                           
2000f090  BlockMax                                                             
00016a9d  C$$EXIT                                                              
000195ff  C$$IO$$                                                              
0000adc9  CfgAddEntry                                                          
000172a5  CfgEntryDeRef                                                        
00019009  CfgEntryGetData                                                      
0001ac39  CfgEntryInfo                                                         
0001b0f1  CfgEntryRef                                                          
00012e35  CfgExecute                                                           
00015db5  CfgFree                                                              
00013a45  CfgGetEntry                                                          
00016391  CfgGetEntryCnt                                                       
00019cf1  CfgGetImmediate                                                      
0001436d  CfgGetNextEntry                                                      
00017f87  CfgNew                                                               
00012be1  CfgRemoveEntry                                                       
0001c125  CfgSetDefault                                                        
000168cd  CfgSetExecuteOrder                                                   
000198a1  CfgSetService                                                        
0001e5a8  Code2Err                                                             
00018ed1  DHCPClose                                                            
00009e45  DHCPOpen                                                             
00018b4f  DNSBuildRequest                                                      
000111c5  DNSGetHostByName                                                     
00013f6b  DNSGetHostByName2                                                    
0000b799  DNSGetReply                                                          
000176f1  DNSReplyFree                                                         
00013227  DNSResolveQuery                                                      
0001563d  DbgPrintf                                                            
0000daa1  EK_TM4C1294XL_initEMAC                                               
000132b5  EK_TM4C1294XL_initGPIO                                               
000128e9  EK_TM4C1294XL_initGeneral                                            
00019fe9  EMACAddrSet                                                          
00019411  EMACConfigGet                                                        
000198d5  EMACConfigSet                                                        
0001bf4d  EMACFrameFilterSet                                                   
000147c9  EMACInit                                                             
00019909  EMACIntClear                                                         
00019045  EMACIntDisable                                                       
000193d5  EMACIntEnable                                                        
0001a401  EMACIntStatus                                                        
00016f91  EMACPHYConfigSet                                                     
0001ac5f  EMACPHYRead                                                          
0001ac85  EMACPHYWrite                                                         
0001bc19  EMACReset                                                            
00009b7b  EMACRxDMADescriptorListSet                                           
0001bc2f  EMACRxEnable                                                         
00010c71  EMACSnow_InitDMADescriptors                                          
00007fed  EMACSnow_NIMUInit                                                    
0001993d  EMACSnow_emacPoll                                                    
0001b8a1  EMACSnow_emacSend                                                    
0000d281  EMACSnow_emacStart                                                   
00013fed  EMACSnow_emacStop                                                    
0001c0b1  EMACSnow_emacioctl                                                   
0001eac0  EMACSnow_fxnTable                                                    
000143e9  EMACSnow_hwiIntFxn                                                   
0001c131  EMACSnow_init                                                        
00019971  EMACSnow_isLinkUp                                                    
0001ad65  EMACSnow_pkt_service                                                 
00013ac9  EMACSnow_processPhyInterrupt                                         
00019f1b  EMACTxDMADescriptorListSet                                           
0001c331  EMACTxDMAPollDemand                                                  
0001bc45  EMACTxEnable                                                         
0001e9c0  EMAC_config                                                          
000199a5  EMAC_init                                                            
00015091  ExecClose                                                            
0001bf5d  ExecHRef                                                             
0001c0bf  ExecLowResource                                                      
00010485  ExecOpen                                                             
0001a9b5  ExecTimer                                                            
0001a42d  FdSignalEvent                                                        
000163f1  FdWaitEvent                                                          
0001bcf5  FlashUserGet                                                         
0001a719  GPIODirModeSet                                                       
0001b84b  GPIOIntClear                                                         
0001c0cd  GPIOIntStatus                                                        
000171a1  GPIOIntTypeSet                                                       
0000bb39  GPIOPadConfigSet                                                     
00017fd1  GPIOPinConfigure                                                     
0001be75  GPIOPinTypeEthernetLED                                               
0001bef3  GPIOPinWrite                                                         
0001ea68  GPIOTiva_config                                                      
00015e19  GPIO_hwiIntFxn                                                       
000132b5  GPIO_init                                                            
000177e9  GPIO_setCallback                                                     
0000a399  GPIO_setConfig                                                       
00017839  GPIO_write                                                           
0001a743  GetHexValue                                                          
00016fe9  HOSTwrite                                                            
0000c5a1  HTTPCli_connect                                                      
00010ba5  HTTPCli_construct                                                    
0001bc5b  HTTPCli_destruct                                                     
0001adad  HTTPCli_disconnect                                                   
0000d491  HTTPCli_getResponseField                                             
0001bd09  HTTPCli_getResponseStatus                                            
0000f455  HTTPCli_initSockAddr                                                 
0001bc71  HTTPCli_readRawResponseBody                                          
00018b8f  HTTPCli_readResponseBody                                             
000172f9  HTTPCli_sendField                                                    
00015101  HTTPCli_sendRequest                                                  
0001c2b9  HTTPCli_setRequestFields                                             
0001c2c3  HTTPCli_setResponseFields                                            
2000f28c  HTTPStd_CONNECT                                                      
2000f294  HTTPStd_CONTENT_TYPE_APPLET                                          
2000f298  HTTPStd_CONTENT_TYPE_AU                                              
2000f29c  HTTPStd_CONTENT_TYPE_CSS                                             
2000f2a0  HTTPStd_CONTENT_TYPE_DOC                                             
2000f2a4  HTTPStd_CONTENT_TYPE_GIF                                             
2000f2a8  HTTPStd_CONTENT_TYPE_HTML                                            
2000f2ac  HTTPStd_CONTENT_TYPE_JPG                                             
2000f2b0  HTTPStd_CONTENT_TYPE_MPEG                                            
2000f2b4  HTTPStd_CONTENT_TYPE_PDF                                             
2000f2c0  HTTPStd_CONTENT_TYPE_PLAIN                                           
2000f2b8  HTTPStd_CONTENT_TYPE_WAV                                             
2000f2bc  HTTPStd_CONTENT_TYPE_ZIP                                             
2000f288  HTTPStd_DELETE                                                       
2000f2c4  HTTPStd_FIELD_NAME_ACCEPT                                            
2000f2c8  HTTPStd_FIELD_NAME_ACCEPT_CHARSET                                    
2000f2cc  HTTPStd_FIELD_NAME_ACCEPT_ENCODING                                   
2000f2d0  HTTPStd_FIELD_NAME_ACCEPT_LANGUAGE                                   
2000f2d4  HTTPStd_FIELD_NAME_ACCEPT_RANGES                                     
2000f2d8  HTTPStd_FIELD_NAME_AGE                                               
2000f2dc  HTTPStd_FIELD_NAME_ALLOW                                             
2000f2e0  HTTPStd_FIELD_NAME_AUTHORIZATION                                     
2000f2e4  HTTPStd_FIELD_NAME_CACHE_CONTROL                                     
2000f2e8  HTTPStd_FIELD_NAME_CONNECTION                                        
2000f2ec  HTTPStd_FIELD_NAME_CONTENT_ENCODING                                  
2000f2f0  HTTPStd_FIELD_NAME_CONTENT_LANGUAGE                                  
2000f2f4  HTTPStd_FIELD_NAME_CONTENT_LENGTH                                    
2000f2f8  HTTPStd_FIELD_NAME_CONTENT_LOCATION                                  
2000f2fc  HTTPStd_FIELD_NAME_CONTENT_MD5                                       
2000f300  HTTPStd_FIELD_NAME_CONTENT_RANGE                                     
2000f304  HTTPStd_FIELD_NAME_CONTENT_TYPE                                      
2000f308  HTTPStd_FIELD_NAME_COOKIE                                            
2000f30c  HTTPStd_FIELD_NAME_DATE                                              
2000f310  HTTPStd_FIELD_NAME_ETAG                                              
2000f314  HTTPStd_FIELD_NAME_EXPECT                                            
2000f318  HTTPStd_FIELD_NAME_EXPIRES                                           
2000f31c  HTTPStd_FIELD_NAME_FROM                                              
2000f320  HTTPStd_FIELD_NAME_HOST                                              
2000f324  HTTPStd_FIELD_NAME_IF_MATCH                                          
2000f328  HTTPStd_FIELD_NAME_IF_MODIFIED_SINCE                                 
2000f32c  HTTPStd_FIELD_NAME_IF_NONE_MATCH                                     
2000f330  HTTPStd_FIELD_NAME_IF_RANGE                                          
2000f334  HTTPStd_FIELD_NAME_IF_UNMODIFIED_SINCE                               
2000f338  HTTPStd_FIELD_NAME_LAST_MODIFIED                                     
2000f33c  HTTPStd_FIELD_NAME_LOCATION                                          
2000f340  HTTPStd_FIELD_NAME_MAX_FORWARDS                                      
2000f344  HTTPStd_FIELD_NAME_ORIGIN                                            
2000f348  HTTPStd_FIELD_NAME_PRAGMA                                            
2000f34c  HTTPStd_FIELD_NAME_PROXY_AUTHENTICATE                                
2000f350  HTTPStd_FIELD_NAME_PROXY_AUTHORIZATION                               
2000f354  HTTPStd_FIELD_NAME_RANGE                                             
2000f358  HTTPStd_FIELD_NAME_REFERER                                           
2000f35c  HTTPStd_FIELD_NAME_RETRY_AFTER                                       
2000f360  HTTPStd_FIELD_NAME_SERVER                                            
2000f364  HTTPStd_FIELD_NAME_TE                                                
2000f368  HTTPStd_FIELD_NAME_TRAILER                                           
2000f36c  HTTPStd_FIELD_NAME_TRANSFER_ENCODING                                 
2000f370  HTTPStd_FIELD_NAME_UPGRADE                                           
2000f374  HTTPStd_FIELD_NAME_USER_AGENT                                        
2000f378  HTTPStd_FIELD_NAME_VARY                                              
2000f37c  HTTPStd_FIELD_NAME_VIA                                               
2000f384  HTTPStd_FIELD_NAME_WARNING                                           
2000f380  HTTPStd_FIELD_NAME_WWW_AUTHENTICATE                                  
2000f388  HTTPStd_FIELD_NAME_X_FORWARDED_FOR                                   
2000f274  HTTPStd_GET                                                          
2000f27c  HTTPStd_HEAD                                                         
2000f280  HTTPStd_OPTIONS                                                      
2000f290  HTTPStd_PATCH                                                        
2000f278  HTTPStd_POST                                                         
2000f284  HTTPStd_PUT                                                          
2000f270  HTTPStd_VER                                                          
000186c9  ICMPChecksum                                                         
0000b8d1  ICMPGenPacket                                                        
00006299  ICMPInput                                                            
00010551  ICMPSendRtAdv                                                        
00009a15  ICMPv6RecvNA                                                         
00006945  ICMPv6RecvNS                                                         
00003aa9  ICMPv6RecvRA                                                         
00016451  ICMPv6RecvRS                                                         
00006059  ICMPv6RecvRedirect                                                   
00007c75  ICMPv6RxPacket                                                       
00007529  ICMPv6SendDstUnreachable                                             
0000c8e9  ICMPv6SendNA                                                         
0000a8c5  ICMPv6SendNS                                                         
00007345  ICMPv6SendParameterProblem                                           
000078d9  ICMPv6SendTimeExceeded                                               
00008845  IGMPInput                                                            
000144e1  IGMPJoin                                                             
0001734d  IGMPLeave                                                            
00014d65  IGMPLeaveHostGroup                                                   
00012ec5  IGMPMsg                                                              
0001a459  IGMPTestGroup                                                        
0001e790  INFINITE_LT                                                          
000197c9  IPChecksum                                                           
00012355  IPGetRoute                                                           
00013341  IPMsg                                                                
00005e0d  IPReasm                                                              
0001870d  IPReasmFree                                                          
00019449  IPReasmTimeout                                                       
0001b8b9  IPRtChange                                                           
00003e65  IPRxPacket                                                           
00002ee1  IPTxPacket                                                           
2000f128  IPV6_ALL_NODES_ADDRESS                                               
2000f138  IPV6_ALL_ROUTER_ADDRESS                                              
0001e77c  IPV6_DELAY_FIRST_PROBE_TIME                                          
2000f148  IPV6_HOST_MASK                                                       
2000f158  IPV6_LINKLOCALMASK                                                   
2000f168  IPV6_LOOPBACK_ADDRESS                                                
0001e770  IPV6_MAX_MULTICAST_SOLICIT                                           
0001e78c  IPV6_MAX_RTR_SOLICITATIONS                                           
0001e784  IPV6_MAX_RTR_SOLICITATION_DELAY                                      
0001e774  IPV6_MAX_UNICAST_SOLICIT                                             
2000f178  IPV6_MULTICASTMASK                                                   
0001e780  IPV6_REACHABLE_TIME                                                  
0001e778  IPV6_RETRANS_TIME                                                    
0001e788  IPV6_RTR_SOLICITATION_INTERVAL                                       
2000f188  IPV6_UNSPECIFIED_ADDRESS                                             
0001a797  IPv6CompareAddress                                                   
0000f705  IPv6DisplayIPAddress                                                 
00015e7d  IPv6FragMsg                                                          
000199d9  IPv6GetRoute                                                         
00016c11  IPv6GetSubnetMaskFromBits                                            
00007e31  IPv6IPAddressToString                                                
00012c75  IPv6Init                                                             
0001b54d  IPv6IsLinkLocal                                                      
0001b8d1  IPv6IsMulticast                                                      
000171f7  IPv6Layer4ComputeChecksum                                            
00015411  IPv6PTRStringToIPAddress                                             
00011045  IPv6ParseExtnHeaders                                                 
0000ebfd  IPv6ParseFragHdr                                                     
0000e461  IPv6RxPacket                                                         
00011c9d  IPv6StringToIPAddress                                                
00007701  IPv6TxFragPacket                                                     
00007aad  IPv6TxPacket                                                         
00017889  IsICMPv6ErrorPkt                                                     
0000455b  LED_TOGGLE                                                           
0001a485  LLI6Free                                                             
0001c2cd  LLI6GetNetDevice                                                     
0001c2d7  LLI6IncRefCount                                                      
0001bf6d  LLI6IsDead                                                           
0001bf7d  LLI6IsRouter                                                         
0001bd1d  LLI6IsValid                                                          
00018c11  LLI6Msg                                                              
0000eced  LLI6New                                                              
0001c339  LLI6SetIncomplete                                                    
0000c239  LLI6TxIPPacket                                                       
00016c6b  LLI6Update                                                           
0001aa05  LLIFree                                                              
0000eddd  LLIGenArpPacket                                                      
00018751  LLIGetValidTime                                                      
00018019  LLIMsg                                                               
000140ed  LLINew                                                               
00008355  LLIRxPacket                                                          
000081a5  LLITxIpPacket                                                        
00018c51  LLIValidateRoute                                                     
0000db9d  MLDJoinGroup                                                         
000162cb  MLDLeaveGroup                                                        
0001a7eb  MLDTestGroup                                                         
0001b1bd  NC_BootComplete                                                      
0001bf8d  NC_IPUpdate                                                          
00009011  NC_NetStart                                                          
0001bd31  NC_NetStop                                                           
0001aa2d  NC_SystemClose                                                       
00012981  NC_SystemOpen                                                        
00014841  NDK_bind                                                             
000148b9  NDK_connect                                                          
0001a4b1  NDK_hookCreate                                                       
0001bd45  NDK_hookExit                                                         
0001c13d  NDK_hookInit                                                         
00013de5  NDK_recv                                                             
0001416d  NDK_send                                                             
000116f5  NDK_sendto                                                           
000123f5  NDK_setsockopt                                                       
00013e67  NDK_socket                                                           
0001b569  NDK_sprintf                                                          
000113fd  NDK_vsprintf                                                         
000125d5  NIMUAddEthernetHeader                                                
0001b585  NIMUAddHeader                                                        
0001aa55  NIMUCreatePacket                                                     
2000fb78  NIMUDeviceTable                                                      
0001add1  NIMUFindByIndex                                                      
00019a0d  NIMUFindByName                                                       
0001bf9d  NIMUGetRsvdSizeInfo                                                  
00019a41  NIMUInit                                                             
0000c9fd  NIMUIoctl                                                            
0001aa7d  NIMUPacketService                                                    
0001a509  NIMUPacketServiceCheck                                               
0000f621  NIMUReceivePacket                                                    
0001455d  NIMURegister                                                         
0001bd59  NIMUSendPacket                                                       
0001c149  NIMUSetRsvdSizeInfo                                                  
00014dd9  NIMUShutdown                                                         
000164b1  NIMUUnregister                                                       
000141ed  NS_BootTask                                                          
0001a049  NS_PreBoot                                                           
00004ecf  NatMsg                                                               
0000fc35  NodeAdd                                                              
00017b09  NodeDeRef                                                            
00016511  NodeFind                                                             
00019481  NodeGetRt                                                            
000114bd  NodeSetRt                                                            
0000cd39  NodeTreeFree                                                         
000156a9  NodeTreeNew                                                          
000180a9  NodeWalk                                                             
0001c155  NotifyLowResource                                                    
00017bf1  NtAddNetwork                                                         
000089dd  NtGetPublicHost                                                      
00018499  NtIfIdx2Ip                                                           
0001bd6d  NtRemoveNetwork                                                      
0001c3a9  OEMSysCritOff                                                        
0001c1e1  OEMSysCritOn                                                         
0001a815  PBMQ_deq                                                             
00015ee1  PBMQ_enq                                                             
2000f1d8  PBMQ_free                                                            
0001426d  PBM_alloc                                                            
0001c161  PBM_close                                                            
000180f1  PBM_copy                                                             
00013715  PBM_free                                                             
00015b49  PBM_open                                                             
2000f96c  PITCount                                                             
2000f974  PITHigh                                                              
2000f970  PITUsed                                                              
2000f0ac  PageCount                                                            
2000f0c8  PageMax                                                              
0001a535  PipeClose                                                            
0000de91  PipeRecv                                                             
00014b89  PipeSend                                                             
0001adf5  RTCAddHook                                                           
00016571  RTCMsg                                                               
0001b1fd  RTCRemoveHook                                                        
000092fd  RTCReport                                                            
0000dd95  Raw6Input                                                            
0000df89  Raw6Output                                                           
00014e4d  RawEthRxPacket                                                       
0001acab  RawEthSockClose                                                      
0001094d  RawEthSockNew                                                        
00019a75  RawEthSockNotify                                                     
000173a1  RawEthSockPcbAttach                                                  
0001b901  RawEthSockPcbCleanup                                                 
00018139  RawEthSockPcbDetach                                                  
0001ae19  RawEthSockPcbFind                                                    
0001bd81  RawEthSockPcbInit                                                    
0001157d  RawEthSockPrAttach                                                   
00012005  RawEthSockPrDetach                                                   
000184df  RawEthSockSend                                                       
00011d4d  RawEthSockSet                                                        
00015715  RawEthTxPacket                                                       
0000ce49  RawInput                                                             
000142ed  RawOutput                                                            
00018c91  Route6Msg                                                            
00018795  RouteMsg                                                             
000048a9  Rt6Create                                                            
00009f9d  Rt6Find                                                              
000165d1  Rt6FindDefaultRouter                                                 
0000a0f1  Rt6Free                                                              
0001c2e1  Rt6GetIF                                                             
0001c2eb  Rt6GetLLI                                                            
0001c2f5  Rt6GetMTU                                                            
0001b113  Rt6GetNetworkAddr                                                    
0001c2ff  Rt6IncRefCount                                                       
0001b21d  Rt6IsDefaultRoute                                                    
0001bfad  Rt6IsLocalRoute                                                      
0000cb11  Rt6Modify                                                            
0001a83f  Rt6Update                                                            
0000d175  RtCreate                                                             
00019d23  RtDeRef                                                              
0000d069  RtFind                                                               
00016cc5  RtRedirect                                                           
000167b1  RtRemove                                                             
00019d55  RtSetFailure                                                         
0001ae61  RtSetTimeout                                                         
000190f9  RtWalkBegin                                                          
000187d9  RtWalkEnd                                                            
00015481  RtWalkNext                                                           
00019d87  SB6Flush                                                             
0001a869  SB6Free                                                              
00014931  SB6New                                                               
0000c35d  SB6Read                                                              
00019db9  SB6SetMax                                                            
0000f8c5  SB6Write                                                             
00019deb  SBFlush                                                              
0001a377  SBFree                                                               
0001632d  SBNew                                                                
000095d9  SBRead                                                               
00019e1d  SBSetMax                                                             
0000f9a1  SBWrite                                                              
UNDEFED   SHT$$INIT_ARRAY$$Base                                                
UNDEFED   SHT$$INIT_ARRAY$$Limit                                               
000170f1  SemCreate                                                            
0001501d  SemCreateBinary                                                      
0001c16d  SemDelete                                                            
00012d9d  SemPend                                                              
00013075  SemPost                                                              
00013d5d  SemReset                                                             
00018525  Sock6Bind                                                            
00014ec1  Sock6CleanPcb                                                        
0000f53b  Sock6Close                                                           
000051ad  Sock6Connect                                                         
0001191d  Sock6CreatePacket                                                    
00016631  Sock6Disconnect                                                      
000197ff  Sock6IntAbort                                                        
00009745  Sock6New                                                             
0000af05  Sock6Notify                                                          
0001ae85  Sock6PcbAttach                                                       
00008501  Sock6PcbBind                                                         
0001aea9  Sock6PcbCleanup                                                      
000117ad  Sock6PcbConnect                                                      
0001a079  Sock6PcbDetach                                                       
0000a245  Sock6PcbResolve                                                      
00013825  Sock6PcbResolveChain                                                 
000194b9  Sock6PcbRtChange                                                     
0001be87  Sock6PrAttach                                                        
0001aaa5  Sock6PrCtlError                                                      
0001b5a1  Sock6PrDetach                                                        
00006d61  Sock6Recv                                                            
0000aa09  Sock6Send                                                            
000064d5  Sock6Set                                                             
0001be99  Sock6SetOOBData                                                      
0001b747  Sock6SetOOBMark                                                      
00015251  Sock6Shutdown                                                        
00015f45  Sock6SpawnAbort                                                      
00015bb1  Sock6ValidateRoute                                                   
0001a0a9  SockBind                                                             
000173f5  SockCleanPcb                                                         
0000eecd  SockClose                                                            
00009ce5  SockConnect                                                          
00012209  SockCreatePacket                                                     
00017ea7  SockDisconnect                                                       
00019e4f  SockIntAbort                                                         
00008d09  SockNew                                                              
0000b041  SockNotify                                                           
0001a561  SockPcbAttach                                                        
0001013d  SockPcbBind                                                          
0001aecd  SockPcbCleanup                                                       
00014f35  SockPcbConnect                                                       
000138ad  SockPcbCtlError                                                      
0001881d  SockPcbDetach                                                        
0000bff1  SockPcbResolve                                                       
00018181  SockPcbResolveChain                                                  
00018cd1  SockPcbRtChange                                                      
0001beab  SockPrAttach                                                         
00019aa9  SockPrCtlError                                                       
0001b5bd  SockPrDetach                                                         
00006f57  SockRecv                                                             
0000b17d  SockSend                                                             
00005459  SockSet                                                              
0001bebd  SockSetOOBData                                                       
0001b761  SockSetOOBMark                                                       
000152c1  SockShutdown                                                         
00015fa9  SockSpawnAbort                                                       
00017c3d  SockValidateRoute                                                    
0001bd95  Ssock_construct                                                      
0001b5d9  Ssock_destruct                                                       
00014655  Ssock_getSocket                                                      
00019835  Ssock_recv                                                           
0001215f  Ssock_send                                                           
0001c381  SysCtlDelay                                                          
00019add  SysCtlPeripheralEnable                                               
000194f1  SysCtlPeripheralReady                                                
00017929  SysCtlPeripheralReset                                                
00019529  TCP6Close                                                            
000181c9  TCP6Drop                                                             
0000b529  TCP6GenPacket                                                        
00000041  TCP6Input                                                            
00002219  TCP6Output                                                           
00013b4d  TCP6PrAttach                                                         
00019135  TCP6PrConnect                                                        
0001856b  TCP6PrCtlError                                                       
00017743  TCP6PrDetach                                                         
00018f4f  TCP6PrDisconnect                                                     
00015a0d  TCP6PrInherit                                                        
0001c387  TCP6PrRecv                                                           
00018d11  TCP6PrSend                                                           
00018a89  TCP6PrSendOOB                                                        
0000fd0d  TCP6PrSetOption                                                      
00019171  TCP6SetPersist                                                       
0001bab1  TCP6TimeoutAdd                                                       
0000ab49  TCP6TimeoutCheck                                                     
00010add  TCP6TimeoutKeep                                                      
00017449  TCP6TimeoutPersist                                                   
0001b23d  TCP6TimeoutRemove                                                    
0000fde5  TCP6TimeoutRexmt                                                     
00014c01  TCP6TimeoutSackRexmt                                                 
0001b25d  TCP6TimeoutWait2                                                     
00017ef1  TCP6ValidateMetrics                                                  
000149a9  TCP6XmitTimer                                                        
0001c349  TaskBlock                                                            
00018f8d  TaskCreate                                                           
0001b5f5  TaskDestroy                                                          
00011581  TaskExit                                                             
0000e555  TaskGetEnv                                                           
000158c5  TaskSelf                                                             
0000f285  TaskSetEnv                                                           
0001619d  TaskSetPri                                                           
00010ba9  TaskSleep                                                            
00016691  TcpChecksum                                                          
00019561  TcpClose                                                             
00018211  TcpDrop                                                              
0000c6b9  TcpGenPacket                                                         
00000cf9  TcpInput                                                             
00001961  TcpOutput                                                            
00013bd1  TcpPrAttach                                                          
000191ad  TcpPrConnect                                                         
000185b1  TcpPrCtlError                                                        
00017795  TcpPrDetach                                                          
00018fcb  TcpPrDisconnect                                                      
00015a77  TcpPrInherit                                                         
0001c38d  TcpPrRecv                                                            
00018d51  TcpPrSend                                                            
00018acb  TcpPrSendOOB                                                         
0000febd  TcpPrSetOption                                                       
000191e9  TcpSetPersist                                                        
0001bac9  TcpTimeoutAdd                                                        
0000ac89  TcpTimeoutCheck                                                      
000119d1  TcpTimeoutKeep                                                       
0001749d  TcpTimeoutPersist                                                    
0001b27d  TcpTimeoutRemove                                                     
0000f7e5  TcpTimeoutRexmt                                                      
00014c79  TcpTimeoutSackRexmt                                                  
0001aef1  TcpTimeoutWait2                                                      
00016d1f  TcpValidateMetrics                                                   
00014a21  TcpXmitTimer                                                         
0001bda9  TimerFree                                                            
00019599  TimerHSTick                                                          
00017f3d  TimerNew                                                             
00008b75  Udp6Input                                                            
0000cc25  Udp6Output                                                           
00015781  UdpChecksum                                                          
0000670d  UdpInput                                                             
0000c115  UdpOutput                                                            
00011341  VLANDeinit                                                           
0001ab6d  VLANInit                                                             
0001686d  VLANReceivePacket                                                    
2000ef08  _ICMPIn                                                              
2000fba0  _ICMPInErrors                                                        
2000ef54  _ICMPOut                                                             
2000fba4  _ICMPOutErrors                                                       
2000fb2c  _IGMPForceVersion1                                                   
2000f234  _IGMPInDiscard                                                       
2000f238  _IGMPInQuery                                                         
2000f23c  _IGMPInQueryGroup                                                    
2000f240  _IGMPInResponse                                                      
2000f244  _IGMPOutResponse                                                     
2000fba8  _IPExecuting                                                         
2000fc78  _IPReasmPtr                                                          
00018259  _LLIExpListInsert                                                    
0001a58d  _LLIExpListRemove                                                    
00011865  _LLITimeoutCheck                                                     
0001a5b9  _LLITimeoutFlush                                                     
000182a1  _RtExpListInsert                                                     
0001a5e5  _RtExpListRemove                                                     
00015c19  _RtNodeInsert                                                        
00019261  _RtNodeRemove                                                        
000051ab  _TaskInit                                                            
00007527  _TaskShutdown                                                        
00000000  __ASM__                                                              
2000e7c8  __CIOBUF_                                                            
00000069  __ISA__                                                              
0000007c  __PLAT__                                                             
200104a8  __STACK_END                                                          
00000800  __STACK_SIZE                                                         
0000009d  __TARG__                                                             
0001f120  __TI_CINIT_Base                                                      
0001f138  __TI_CINIT_Limit                                                     
0001f100  __TI_Handler_Table_Base                                              
0001f10c  __TI_Handler_Table_Limit                                             
00012495  __TI_auto_init                                                       
00015c81  __TI_decompress_lzss                                                 
0001c0db  __TI_decompress_none                                                 
ffffffff  __TI_pprof_out_hndl                                                  
ffffffff  __TI_prof_data_size                                                  
ffffffff  __TI_prof_data_start                                                 
00019b11  __TI_readmsg                                                         
0001ec50  __TI_static_base__                                                   
000195d1  __TI_writemsg                                                        
0001c19d  __TI_zero_init                                                       
000000c3  __TRDR__                                                             
0001c351  __aeabi_errno_addr                                                   
0000ebfb  __aeabi_idiv0                                                        
0000ebfb  __aeabi_ldiv0                                                        
000146d5  __aeabi_memclr                                                       
000146d5  __aeabi_memclr4                                                      
000146d5  __aeabi_memclr8                                                      
000127af  __aeabi_memcpy                                                       
000127af  __aeabi_memcpy4                                                      
000127af  __aeabi_memcpy8                                                      
000146d7  __aeabi_memset                                                       
000146d7  __aeabi_memset4                                                      
000146d7  __aeabi_memset8                                                      
00018d91  __aeabi_uidiv                                                        
00018d91  __aeabi_uidivmod                                                     
ffffffff  __binit__                                                            
ffffffff  __c_args__                                                           
2000fca8  __stack                                                              
20000000  __start___llvm_prf_cnts                                              
20000000  __stop___llvm_prf_cnts                                               
0001c393  __xdc__init                                                          
2000fb8c  __xdc__init__addr                                                    
0001bae1  _args_main                                                           
00016f39  _c_int00                                                             
0001e1b4  _ctypes_                                                             
2000f38c  _ipcfg                                                               
00016a3d  _llSerialInit                                                        
00007aab  _llSerialServiceCheck                                                
00009743  _llSerialShutdown                                                    
0001929d  _llTimerInit                                                         
0001c179  _llTimerShutdown                                                     
0000b8cf  _llUserLedInit                                                       
0000c47f  _llUserLedShutdown                                                   
2000fb70  _lock                                                                
00013459  _mmInit                                                              
0000d27f  _nop                                                                 
2000f948  _oscfg                                                               
0001c185  _register_lock                                                       
0001c191  _register_unlock                                                     
2000fb74  _unlock                                                              
00016a9d  abort                                                                
00017c89  atoi                                                                 
ffffffff  binit                                                                
00017cd5  copy_in                                                              
00016d79  dhcpBuildDecline                                                     
00019609  dhcpBuildDiscover                                                    
000166f1  dhcpBuildOptions                                                     
00012673  dhcpBuildRequest                                                     
00015331  dhcpDecodeType                                                       
00019641  dhcpOptionsClear                                                     
0000d69d  dhcpPacketProcess                                                    
0001ab95  dhcpPacketReceive                                                    
0001a0d9  dhcpPacketSend                                                       
0001baf9  dhcpSocketClose                                                      
0000fa7d  dhcpSocketOpen                                                       
0000fb59  dhcpState                                                            
000107b5  dhcpVerifyMessage                                                    
0001ea90  emacHWAttrs                                                          
2000f1fc  emacObjects                                                          
2000f890  enablePrefetch                                                       
2000fc68  errno                                                                
00013199  fdClose                                                              
00018b0d  fdCloseSession                                                       
0001b481  fdError                                                              
00014a99  fdOpenSession                                                        
0001bc87  fdint_freefdt                                                        
0001b77b  fdint_getfdt                                                         
00017d21  fdint_lockfd                                                         
0001c309  fdint_signalevent                                                    
0001c313  fdint_signaltimeout                                                  
000182e9  fdint_unlockfd                                                       
00019679  fdint_waitevent                                                      
0001a3a5  ff_memalloc                                                          
0001b795  ff_memfree                                                           
0001b795  free                                                                 
0001bb11  freeaddrinfo                                                         
2000fbb8  gFragQList                                                           
2000fc84  gMLDNodeList                                                         
2000f248  g_ulStatus                                                           
000036cd  getaddrinfo                                                          
2000fb80  gpioCallbackFunctions                                                
2000faf4  gpioPinConfigs                                                       
0000594d  httpTask                                                             
2000f0e4  icmp6stats                                                           
0001becf  inet_addr                                                            
0000d79f  inet_aton                                                            
000134e5  inet_pton                                                            
2000ee3c  ips                                                                  
20009c28  ipv6mcb                                                              
0001b2bd  isValidHexDigit                                                      
0001bb29  list_add                                                             
0001b2dd  list_cat                                                             
000175ed  list_get_head                                                        
00017645  list_get_next                                                        
0001b49f  list_remove                                                          
0001a109  list_remove_node                                                     
0000d599  llEnter                                                              
00014b11  llExit                                                               
0000d597  llSerialService                                                      
0001c1a9  llTimerGetStartTime                                                  
000188a5  llTimerGetTime                                                       
0001600d  llTimerTick                                                          
2000fc48  macAddress                                                           
00012711  main                                                                 
2000fc6c  main_func_sp                                                         
0001a3a5  malloc                                                               
0001b795  mem_Free                                                             
000127af  memcpy                                                               
000146dd  memset                                                               
000086a9  mmAlloc                                                              
00012f55  mmBulkAlloc                                                          
00013c55  mmBulkFree                                                           
00016dd3  mmCopy                                                               
00013cd9  mmFree                                                               
000185f7  mmZeroInit                                                           
000145d9  netIPAddrHook                                                        
2000eea4  nimu_mcb                                                             
0001c051  osi_TaskDisable                                                      
0001bff1  osi_start                                                            
2000f204  parmbuf                                                              
2000f894  phyCounter                                                           
00019f55  printError                                                           
2000f920  pstrMsgName                                                          
2000fbd0  pt6TimeFirst                                                         
2000fbcc  ptTimeFirst                                                          
2000f1a8  raw6_stats                                                           
2000f264  raweth_pcb                                                           
2000f1b8  raweths                                                              
2000f1c8  raws                                                                 
2000f0fc  stkEvent                                                             
0001a3d3  strcasecmp                                                           
0001b4bd  strcat                                                               
0001bc9d  strchr                                                               
0001bb41  strcmp                                                               
0001bdbd  strcpy                                                               
0001af5d  strcspn                                                              
00019b79  stricmp                                                              
0001bdd1  strlen                                                               
000192d9  strncasecmp                                                          
0001a63d  strncmp                                                              
0001986b  strncpy                                                              
0001a911  strspn                                                               
00018dd1  strtok                                                               
0000bd99  strtol                                                               
0000cf59  strtoul                                                              
2000fbd4  tcp6_iss                                                             
2000e9e8  tcp6_stats                                                           
2000fbc8  tcp_iss                                                              
2000eaa0  tcps                                                                 
0001eaf8  ti_catalog_arm_cortexm4_tiva_ce_Boot_A_mustNotUseEnhancedClockMode__C
0001eafc  ti_catalog_arm_cortexm4_tiva_ce_Boot_Module__diagsEnabled__C         
0001eb00  ti_catalog_arm_cortexm4_tiva_ce_Boot_Module__diagsIncluded__C        
0001eb04  ti_catalog_arm_cortexm4_tiva_ce_Boot_Module__diagsMask__C            
0001dd22  ti_catalog_arm_cortexm4_tiva_ce_Boot_Module__id__C                   
0001bf1d  ti_catalog_arm_cortexm4_tiva_ce_Boot_init__I                         
00006b5d  ti_catalog_arm_cortexm4_tiva_ce_Boot_sysCtlClockFreqSetI__I          
00012ab1  ti_catalog_arm_cortexm4_tiva_ce_Boot_sysCtlClockFreqSet__E           
2000fb88  ti_ndk_config_Global_HostName                                        
2000f9f0  ti_ndk_config_Global_Id2Size                                         
0001e9fc  ti_ndk_config_Global_largest                                         
0001ea00  ti_ndk_config_Global_numFrameBuf                                     
20009c80  ti_ndk_config_Global_pBufMem                                         
2000d880  ti_ndk_config_Global_pHdrMem                                         
20005380  ti_ndk_config_Global_pit                                             
20005428  ti_ndk_config_Global_pitBuffer                                       
0001e9f4  ti_ndk_config_Global_rawPageCount                                    
0001e9f0  ti_ndk_config_Global_rawPageSize                                     
00016751  ti_ndk_config_Global_serviceReport                                   
0001ea04  ti_ndk_config_Global_sizeFrameBuf                                    
0001e9f8  ti_ndk_config_Global_smallest                                        
0000c481  ti_ndk_config_Global_stackThread                                     
0001b62d  ti_ndk_config_global_taskCreateHook                                  
0001bde5  ti_ndk_config_global_taskExitHook                                    
00015859  ti_ndk_config_ip_init                                                
00016e2d  ti_ndk_config_tcp_init                                               
2000f990  ti_sysbios_BIOS_Module__state__V                                     
0001b7e3  ti_sysbios_BIOS_RtsGateProxy_Handle__label__S                        
0001b011  ti_sysbios_BIOS_RtsGateProxy_Object__delete__S                       
00017dbd  ti_sysbios_BIOS_RtsGateProxy_enter__E                                
00017e0d  ti_sysbios_BIOS_RtsGateProxy_leave__E                                
0001c3e1  ti_sysbios_BIOS_RtsGateProxy_query__E                                
0001a169  ti_sysbios_BIOS_atExitFunc__I                                        
0001af81  ti_sysbios_BIOS_errorRaiseHook__I                                    
0001bcb3  ti_sysbios_BIOS_exitFunc__I                                          
0001bfc1  ti_sysbios_BIOS_exit__E                                              
0001bfd1  ti_sysbios_BIOS_getCpuFreq__E                                        
0001c1b9  ti_sysbios_BIOS_getThreadType__E                                     
0000f703  ti_sysbios_BIOS_nullFunc__I                                          
0001afa5  ti_sysbios_BIOS_registerRTSLock__I                                   
0001afc9  ti_sysbios_BIOS_removeRTSLock__I                                     
0001b2fd  ti_sysbios_BIOS_rtsLock__I                                           
0001bb59  ti_sysbios_BIOS_rtsUnlock__I                                         
0001bfe1  ti_sysbios_BIOS_setThreadType__E                                     
0001afed  ti_sysbios_BIOS_startFunc__I                                         
0001bff1  ti_sysbios_BIOS_start__E                                             
2000f73c  ti_sysbios_family_arm_lm4_Timer_Module_State_0_device__A             
2000f9b4  ti_sysbios_family_arm_lm4_Timer_Module_State_0_handles__A            
0001bb71  ti_sysbios_family_arm_lm4_Timer_Module__startupDone__F               
0001bb71  ti_sysbios_family_arm_lm4_Timer_Module__startupDone__S               
2000fb40  ti_sysbios_family_arm_lm4_Timer_Module__state__V                     
00016071  ti_sysbios_family_arm_lm4_Timer_Module_startup__E                    
2000f77c  ti_sysbios_family_arm_lm4_Timer_Object__table__V                     
0001eb08  ti_sysbios_family_arm_lm4_Timer_enableFunc__C                        
00018331  ti_sysbios_family_arm_lm4_Timer_enableTimers__I                      
00012009  ti_sysbios_family_arm_lm4_Timer_enableTiva__I                        
0001c1c9  ti_sysbios_family_arm_lm4_Timer_getMaxTicks__E                       
000175f1  ti_sysbios_family_arm_lm4_Timer_initDevice__I                        
000188e9  ti_sysbios_family_arm_lm4_Timer_isrStub__E                           
0001c359  ti_sysbios_family_arm_lm4_Timer_masterDisable__I                     
0001892d  ti_sysbios_family_arm_lm4_Timer_masterEnable__I                      
0001eb0c  ti_sysbios_family_arm_lm4_Timer_numTimerDevices__C                   
0000d389  ti_sysbios_family_arm_lm4_Timer_start__E                             
0001eb10  ti_sysbios_family_arm_lm4_Timer_startupNeeded__C                     
00018e51  ti_sysbios_family_arm_lm4_Timer_startup__E                           
0001a199  ti_sysbios_family_arm_lm4_Timer_stop__E                              
0001b159  ti_sysbios_family_arm_lm4_Timer_write__I                             
0001eb14  ti_sysbios_family_arm_m3_Hwi_E_NMI__C                                
0001eb18  ti_sysbios_family_arm_m3_Hwi_E_alreadyDefined__C                     
0001eb1c  ti_sysbios_family_arm_m3_Hwi_E_busFault__C                           
0001eb20  ti_sysbios_family_arm_m3_Hwi_E_debugMon__C                           
0001eb24  ti_sysbios_family_arm_m3_Hwi_E_hardFault__C                          
0001eb28  ti_sysbios_family_arm_m3_Hwi_E_memFault__C                           
0001eb2c  ti_sysbios_family_arm_m3_Hwi_E_noIsr__C                              
0001eb30  ti_sysbios_family_arm_m3_Hwi_E_reserved__C                           
0001eb34  ti_sysbios_family_arm_m3_Hwi_E_svCall__C                             
0001eb38  ti_sysbios_family_arm_m3_Hwi_E_usageFault__C                         
0001b7af  ti_sysbios_family_arm_m3_Hwi_Handle__label__S                        
00019bb1  ti_sysbios_family_arm_m3_Hwi_Instance_finalize__E                    
00012d09  ti_sysbios_family_arm_m3_Hwi_Instance_init__E                        
2000f8c2  ti_sysbios_family_arm_m3_Hwi_Module_State_0_excActive__A             
2000fc90  ti_sysbios_family_arm_m3_Hwi_Module_State_0_excContext__A            
2000fc94  ti_sysbios_family_arm_m3_Hwi_Module_State_0_excStack__A              
0001e38a  ti_sysbios_family_arm_m3_Hwi_Module__id__C                           
2000fbe0  ti_sysbios_family_arm_m3_Hwi_Module__root__V                         
0001bb89  ti_sysbios_family_arm_m3_Hwi_Module__startupDone__F                  
0001bb89  ti_sysbios_family_arm_m3_Hwi_Module__startupDone__S                  
2000f85c  ti_sysbios_family_arm_m3_Hwi_Module__state__V                        
000179c9  ti_sysbios_family_arm_m3_Hwi_Module_startup__E                       
0001eb3c  ti_sysbios_family_arm_m3_Hwi_NUM_INTERRUPTS__C                       
0001e868  ti_sysbios_family_arm_m3_Hwi_Object__DESC__C                         
0001e6f0  ti_sysbios_family_arm_m3_Hwi_Object__PARAMS__C                       
0001eb40  ti_sysbios_family_arm_m3_Hwi_Object__count__C                        
0001b31d  ti_sysbios_family_arm_m3_Hwi_Object__delete__S                       
0001bdf9  ti_sysbios_family_arm_m3_Hwi_Object__get__S                          
2000fa88  ti_sysbios_family_arm_m3_Hwi_Object__table__V                        
0001c1d5  ti_sysbios_family_arm_m3_Hwi_Params__init__S                         
0001eb44  ti_sysbios_family_arm_m3_Hwi_ccr__C                                  
000160d5  ti_sysbios_family_arm_m3_Hwi_create                                  
00018975  ti_sysbios_family_arm_m3_Hwi_delete                                  
0001c1e1  ti_sysbios_family_arm_m3_Hwi_disableFxn__E                           
00018379  ti_sysbios_family_arm_m3_Hwi_disableInterrupt__E                     
00016139  ti_sysbios_family_arm_m3_Hwi_dispatchC__I                            
2000e468  ti_sysbios_family_arm_m3_Hwi_dispatchTable                           
0000e649  ti_sysbios_family_arm_m3_Hwi_dispatch__I                             
0001c361  ti_sysbios_family_arm_m3_Hwi_doSwiRestore__I                         
0001c3a1  ti_sysbios_family_arm_m3_Hwi_doTaskRestore__I                        
000183c1  ti_sysbios_family_arm_m3_Hwi_enableInterrupt__E                      
00009189  ti_sysbios_family_arm_m3_Hwi_excBusFault__I                          
00011401  ti_sysbios_family_arm_m3_Hwi_excDebugMon__I                          
00002ab1  ti_sysbios_family_arm_m3_Hwi_excDumpRegs__I                          
0001b33d  ti_sysbios_family_arm_m3_Hwi_excHandlerAsm__I                        
0001eb48  ti_sysbios_family_arm_m3_Hwi_excHandlerFunc__C                       
00007151  ti_sysbios_family_arm_m3_Hwi_excHandlerMax__I                        
0001b361  ti_sysbios_family_arm_m3_Hwi_excHandler__I                           
000114c1  ti_sysbios_family_arm_m3_Hwi_excHardFault__I                         
0001eac8  ti_sysbios_family_arm_m3_Hwi_excHookFuncs__A                         
0001eb4c  ti_sysbios_family_arm_m3_Hwi_excHookFuncs__C                         
0000a639  ti_sysbios_family_arm_m3_Hwi_excMemFault__I                          
00019be9  ti_sysbios_family_arm_m3_Hwi_excNmi__I                               
000196b1  ti_sysbios_family_arm_m3_Hwi_excNoIsr__I                             
00018409  ti_sysbios_family_arm_m3_Hwi_excReserved__I                          
00019319  ti_sysbios_family_arm_m3_Hwi_excSvCall__I                            
00009b81  ti_sysbios_family_arm_m3_Hwi_excUsageFault__I                        
00018931  ti_sysbios_family_arm_m3_Hwi_getStackInfo__E                         
00012da1  ti_sysbios_family_arm_m3_Hwi_initNVIC__E                             
00017149  ti_sysbios_family_arm_m3_Hwi_initStacks__E                           
0001eb50  ti_sysbios_family_arm_m3_Hwi_nullIsrFunc__C                          
e000e000  ti_sysbios_family_arm_m3_Hwi_nvic                                    
0001acd1  ti_sysbios_family_arm_m3_Hwi_pendSV__I                               
00013d61  ti_sysbios_family_arm_m3_Hwi_postInit__I                             
0001eb54  ti_sysbios_family_arm_m3_Hwi_priGroup__C                             
20000000  ti_sysbios_family_arm_m3_Hwi_ramVectors                              
00000000  ti_sysbios_family_arm_m3_Hwi_resetVectors                            
0001c3a9  ti_sysbios_family_arm_m3_Hwi_restoreFxn__E                           
0001acf5  ti_sysbios_family_arm_m3_Hwi_return                                  
0001c369  ti_sysbios_family_arm_m3_Hwi_startup__E                              
0001be11  ti_sysbios_family_arm_m3_Hwi_switchFromBootStack__E                  
00019315  ti_sysbios_family_arm_m3_TaskSupport_Module__startupDone__S          
000135fd  ti_sysbios_family_arm_m3_TaskSupport_buildTaskStack                  
0001c1f1  ti_sysbios_family_arm_m3_TaskSupport_checkStack__E                   
0001c201  ti_sysbios_family_arm_m3_TaskSupport_getStackAlignment__E            
0001c001  ti_sysbios_family_arm_m3_TaskSupport_glue                            
0001eb58  ti_sysbios_family_arm_m3_TaskSupport_stackAlignment__C               
0001a1c9  ti_sysbios_family_arm_m3_TaskSupport_start__E                        
0001bba1  ti_sysbios_family_arm_m3_TaskSupport_swap__E                         
0001b4db  ti_sysbios_family_xxx_Hwi_switchAndRunFunc                           
0001b7c9  ti_sysbios_gates_GateHwi_Handle__label__S                            
0001c3f1  ti_sysbios_gates_GateHwi_Instance_init__E                            
0001e794  ti_sysbios_gates_GateHwi_Module__FXNS__C                             
2000fbe8  ti_sysbios_gates_GateHwi_Module__root__V                             
0001e888  ti_sysbios_gates_GateHwi_Object__DESC__C                             
0001ea08  ti_sysbios_gates_GateHwi_Object__PARAMS__C                           
0001a1f9  ti_sysbios_gates_GateHwi_Object__create__S                           
0001b381  ti_sysbios_gates_GateHwi_Object__delete__S                           
2000fc98  ti_sysbios_gates_GateHwi_Object__table__V                            
0001c211  ti_sysbios_gates_GateHwi_enter__E                                    
0001c3b1  ti_sysbios_gates_GateHwi_leave__E                                    
0001c3d9  ti_sysbios_gates_GateHwi_query__E                                    
0001b7e3  ti_sysbios_gates_GateMutex_Handle__label__S                          
0001eb5c  ti_sysbios_gates_GateMutex_Instance_State_sem__O                     
0001c011  ti_sysbios_gates_GateMutex_Instance_finalize__E                      
0001b649  ti_sysbios_gates_GateMutex_Instance_init__E                          
0001e7b8  ti_sysbios_gates_GateMutex_Module__FXNS__C                           
2000fbf0  ti_sysbios_gates_GateMutex_Module__root__V                           
0001e8a8  ti_sysbios_gates_GateMutex_Object__DESC__C                           
0001ea20  ti_sysbios_gates_GateMutex_Object__PARAMS__C                         
0001a229  ti_sysbios_gates_GateMutex_Object__create__S                         
0001b011  ti_sysbios_gates_GateMutex_Object__delete__S                         
2000f7bc  ti_sysbios_gates_GateMutex_Object__table__V                          
0001a259  ti_sysbios_gates_GateMutex_enter__E                                  
0001bbb9  ti_sysbios_gates_GateMutex_leave__E                                  
0001c3e1  ti_sysbios_gates_GateMutex_query__E                                  
0001eb60  ti_sysbios_hal_Hwi_E_stackOverflow__C                                
0001b7af  ti_sysbios_hal_Hwi_HwiProxy_Handle__label__S                         
0001bb89  ti_sysbios_hal_Hwi_HwiProxy_Module__startupDone__S                   
0001b31d  ti_sysbios_hal_Hwi_HwiProxy_Object__delete__S                        
0001c1d5  ti_sysbios_hal_Hwi_HwiProxy_Params__init__S                          
00018379  ti_sysbios_hal_Hwi_HwiProxy_disableInterrupt__E                      
0001c1e1  ti_sysbios_hal_Hwi_HwiProxy_disable__E                               
000183c1  ti_sysbios_hal_Hwi_HwiProxy_enableInterrupt__E                       
00018931  ti_sysbios_hal_Hwi_HwiProxy_getStackInfo__E                          
0001c3a9  ti_sysbios_hal_Hwi_HwiProxy_restore__E                               
0001c369  ti_sysbios_hal_Hwi_HwiProxy_startup__E                               
0001be11  ti_sysbios_hal_Hwi_HwiProxy_switchFromBootStack__E                   
0001e682  ti_sysbios_hal_Hwi_Module__id__C                                     
0001bee1  ti_sysbios_hal_Hwi_Module_startup__E                                 
00019c21  ti_sysbios_hal_Hwi_checkStack                                        
00018379  ti_sysbios_hal_Hwi_disableInterrupt__E                               
000183c1  ti_sysbios_hal_Hwi_enableInterrupt__E                                
00018931  ti_sysbios_hal_Hwi_getStackInfo__E                                   
00019ee9  ti_sysbios_hal_Hwi_initStack                                         
0001c369  ti_sysbios_hal_Hwi_startup__E                                        
0001be11  ti_sysbios_hal_Hwi_switchFromBootStack__E                            
0001eb64  ti_sysbios_heaps_HeapMem_E_memory__C                                 
0001b7fd  ti_sysbios_heaps_HeapMem_Handle__label__S                            
20000380  ti_sysbios_heaps_HeapMem_Instance_State_0_buf__A                     
00018e91  ti_sysbios_heaps_HeapMem_Instance_init__E                            
0001b7e3  ti_sysbios_heaps_HeapMem_Module_GateProxy_Handle__label__S           
0001b011  ti_sysbios_heaps_HeapMem_Module_GateProxy_Object__delete__S          
00019355  ti_sysbios_heaps_HeapMem_Module_GateProxy_enter__E                   
00019395  ti_sysbios_heaps_HeapMem_Module_GateProxy_leave__E                   
0001c3e1  ti_sysbios_heaps_HeapMem_Module_GateProxy_query__E                   
0001e720  ti_sysbios_heaps_HeapMem_Module__FXNS__C                             
0001eb68  ti_sysbios_heaps_HeapMem_Module__gateObj__C                          
0001ec38  ti_sysbios_heaps_HeapMem_Module__id__C                               
2000fbf8  ti_sysbios_heaps_HeapMem_Module__root__V                             
0001e8c8  ti_sysbios_heaps_HeapMem_Object__DESC__C                             
0001e7dc  ti_sysbios_heaps_HeapMem_Object__PARAMS__C                           
0001eb6c  ti_sysbios_heaps_HeapMem_Object__count__C                            
0001a289  ti_sysbios_heaps_HeapMem_Object__create__S                           
0001b3a1  ti_sysbios_heaps_HeapMem_Object__delete__S                           
0001be25  ti_sysbios_heaps_HeapMem_Object__get__S                              
2000faa0  ti_sysbios_heaps_HeapMem_Object__table__V                            
00010211  ti_sysbios_heaps_HeapMem_alloc__E                                    
00014659  ti_sysbios_heaps_HeapMem_free__E                                     
00017d71  ti_sysbios_heaps_HeapMem_getStats__E                                 
00019359  ti_sysbios_heaps_HeapMem_init__I                                     
0001c3b9  ti_sysbios_heaps_HeapMem_isBlocking__E                               
0001eb70  ti_sysbios_heaps_HeapMem_reqAlign__C                                 
00017a19  ti_sysbios_knl_Clock_Instance_init__E                                
0001eb74  ti_sysbios_knl_Clock_Module_State_clockQ__O                          
2000fc00  ti_sysbios_knl_Clock_Module__root__V                                 
2000f8f4  ti_sysbios_knl_Clock_Module__state__V                                
0001b039  ti_sysbios_knl_Clock_Module_startup__E                               
0001e8e8  ti_sysbios_knl_Clock_Object__DESC__C                                 
0001e800  ti_sysbios_knl_Clock_Object__PARAMS__C                               
0001c21d  ti_sysbios_knl_Clock_Params__init__S                                 
0001bb71  ti_sysbios_knl_Clock_TimerProxy_Module__startupDone__S               
00019bad  ti_sysbios_knl_Clock_TimerProxy_getMaxTicks__E                       
00018e51  ti_sysbios_knl_Clock_TimerProxy_startup__E                           
0001abe9  ti_sysbios_knl_Clock_addI__E                                         
000196e9  ti_sysbios_knl_Clock_create                                          
0001a669  ti_sysbios_knl_Clock_doTick__I                                       
0001c229  ti_sysbios_knl_Clock_getTicks__E                                     
0001c3f9  ti_sysbios_knl_Clock_logTick__E                                      
000153a1  ti_sysbios_knl_Clock_workFunc__E                                     
0001ead0  ti_sysbios_knl_Idle_funcList__A                                      
0001ead8  ti_sysbios_knl_Idle_funcList__C                                      
0001c0f9  ti_sysbios_knl_Idle_loop__E                                          
0001b3c1  ti_sysbios_knl_Idle_run__E                                           
0001c3c1  ti_sysbios_knl_Queue_Instance_init__E                                
2000fc08  ti_sysbios_knl_Queue_Module__root__V                                 
0001e908  ti_sysbios_knl_Queue_Object__DESC__C                                 
0001ea38  ti_sysbios_knl_Queue_Object__PARAMS__C                               
0001b665  ti_sysbios_knl_Queue_Object__destruct__S                             
0001c235  ti_sysbios_knl_Queue_Object__get__S                                  
0001a695  ti_sysbios_knl_Queue_construct                                       
00019be5  ti_sysbios_knl_Queue_destruct                                        
0001c109  ti_sysbios_knl_Queue_empty__E                                        
0001b681  ti_sysbios_knl_Queue_put__E                                          
0001eb78  ti_sysbios_knl_Semaphore_Instance_State_pendQ__O                     
0001c021  ti_sysbios_knl_Semaphore_Instance_finalize__E                        
0001b061  ti_sysbios_knl_Semaphore_Instance_init__E                            
2000fc10  ti_sysbios_knl_Semaphore_Module__root__V                             
0001e928  ti_sysbios_knl_Semaphore_Object__DESC__C                             
0001e824  ti_sysbios_knl_Semaphore_Object__PARAMS__C                           
0001b085  ti_sysbios_knl_Semaphore_Object__delete__S                           
0001b3e1  ti_sysbios_knl_Semaphore_Object__destruct__S                         
0001c241  ti_sysbios_knl_Semaphore_Params__init__S                             
0001a2b9  ti_sysbios_knl_Semaphore_construct                                   
00019c55  ti_sysbios_knl_Semaphore_create                                      
00019c1d  ti_sysbios_knl_Semaphore_delete                                      
00019ee5  ti_sysbios_knl_Semaphore_destruct                                    
00019f21  ti_sysbios_knl_Semaphore_pendTimeout__I                              
0000b661  ti_sysbios_knl_Semaphore_pend__E                                     
000161a1  ti_sysbios_knl_Semaphore_post__E                                     
0001bef9  ti_sysbios_knl_Semaphore_reset__E                                    
0001b817  ti_sysbios_knl_Swi_Handle__label__S                                  
0001c401  ti_sysbios_knl_Swi_Instance_finalize__E                              
00017649  ti_sysbios_knl_Swi_Instance_init__E                                  
2000f4d8  ti_sysbios_knl_Swi_Module_State_0_readyQ__A                          
2000fc18  ti_sysbios_knl_Swi_Module__root__V                                   
2000fa0c  ti_sysbios_knl_Swi_Module__state__V                                  
0001ac11  ti_sysbios_knl_Swi_Module_startup__E                                 
0001e948  ti_sysbios_knl_Swi_Object__DESC__C                                   
0001e748  ti_sysbios_knl_Swi_Object__PARAMS__C                                 
0001eb7c  ti_sysbios_knl_Swi_Object__count__C                                  
0001b401  ti_sysbios_knl_Swi_Object__delete__S                                 
0001be39  ti_sysbios_knl_Swi_Object__get__S                                    
2000f8c4  ti_sysbios_knl_Swi_Object__table__V                                  
000169e1  ti_sysbios_knl_Swi_create                                            
0001abe5  ti_sysbios_knl_Swi_delete                                            
0001c031  ti_sysbios_knl_Swi_disable__E                                        
00018979  ti_sysbios_knl_Swi_post__E                                           
000158c9  ti_sysbios_knl_Swi_restoreHwi__E                                     
00019399  ti_sysbios_knl_Swi_restore__E                                        
00017dc1  ti_sysbios_knl_Swi_runLoop__I                                        
00016a41  ti_sysbios_knl_Swi_run__I                                            
00016aa1  ti_sysbios_knl_Swi_schedule__I                                       
0001c3c9  ti_sysbios_knl_Swi_startup__E                                        
0001eb80  ti_sysbios_knl_Task_E_deleteNotAllowed__C                            
0001eb84  ti_sysbios_knl_Task_E_spOutOfBounds__C                               
0001eb88  ti_sysbios_knl_Task_E_stackOverflow__C                               
0001b831  ti_sysbios_knl_Task_Handle__label__S                                 
2000f268  ti_sysbios_knl_Task_Instance_State_0_hookEnv__A                      
2000dc68  ti_sysbios_knl_Task_Instance_State_0_stack__A                        
2000f26c  ti_sysbios_knl_Task_Instance_State_1_hookEnv__A                      
2000e268  ti_sysbios_knl_Task_Instance_State_1_stack__A                        
0000a4e9  ti_sysbios_knl_Task_Instance_finalize__E                             
0000e741  ti_sysbios_knl_Task_Instance_init__E                                 
2000fc9c  ti_sysbios_knl_Task_Module_State_0_idleTask__A                       
2000f558  ti_sysbios_knl_Task_Module_State_0_readyQ__A                         
0001eb8c  ti_sysbios_knl_Task_Module_State_inactiveQ__O                        
0001eb90  ti_sysbios_knl_Task_Module_State_terminatedQ__O                      
0001ec3a  ti_sysbios_knl_Task_Module__id__C                                    
2000fc20  ti_sysbios_knl_Task_Module__root__V                                  
2000f678  ti_sysbios_knl_Task_Module__state__V                                 
00013079  ti_sysbios_knl_Task_Module_startup__E                                
0001e968  ti_sysbios_knl_Task_Object__DESC__C                                  
0001e684  ti_sysbios_knl_Task_Object__PARAMS__C                                
0001eb94  ti_sysbios_knl_Task_Object__count__C                                 
0001b421  ti_sysbios_knl_Task_Object__delete__S                                
0001be4d  ti_sysbios_knl_Task_Object__first__S                                 
0001c041  ti_sysbios_knl_Task_Object__get__S                                   
0001eb98  ti_sysbios_knl_Task_Object__heap__C                                  
0001be61  ti_sysbios_knl_Task_Object__next__S                                  
2000f440  ti_sysbios_knl_Task_Object__table__V                                 
0001c24d  ti_sysbios_knl_Task_Params__init__S                                  
00019315  ti_sysbios_knl_Task_SupportProxy_Module__startupDone__S              
0001c1f1  ti_sysbios_knl_Task_SupportProxy_checkStack__E                       
0001c201  ti_sysbios_knl_Task_SupportProxy_getStackAlignment__E                
0001a1c9  ti_sysbios_knl_Task_SupportProxy_start__E                            
0001bba1  ti_sysbios_knl_Task_SupportProxy_swap__E                             
0001eb9c  ti_sysbios_knl_Task_allBlockedFunc__C                                
00017e11  ti_sysbios_knl_Task_allBlockedFunction__I                            
00011b39  ti_sysbios_knl_Task_checkStacks__E                                   
00016afd  ti_sysbios_knl_Task_create                                           
0001eba0  ti_sysbios_knl_Task_defaultStackHeap__C                              
0001eba4  ti_sysbios_knl_Task_defaultStackSize__C                              
0001b035  ti_sysbios_knl_Task_delete                                           
00018451  ti_sysbios_knl_Task_deleteTerminatedTasksFunc__I                     
0001c051  ti_sysbios_knl_Task_disable__E                                       
0001b6a1  ti_sysbios_knl_Task_enter__I                                         
00011581  ti_sysbios_knl_Task_exit__E                                          
0001c371  ti_sysbios_knl_Task_getHookContext__E                                
0001c259  ti_sysbios_knl_Task_getIdleTask__E                                   
0001ea50  ti_sysbios_knl_Task_hooks__A                                         
0001eae0  ti_sysbios_knl_Task_hooks__C                                         
0001eba8  ti_sysbios_knl_Task_numConstructedTasks__C                           
0000f199  ti_sysbios_knl_Task_postInit__I                                      
00019721  ti_sysbios_knl_Task_processVitalTaskFlag__I                          
0001b0a9  ti_sysbios_knl_Task_restoreHwi__E                                    
0001a6c1  ti_sysbios_knl_Task_restore__E                                       
00012b49  ti_sysbios_knl_Task_schedule__I                                      
0001c269  ti_sysbios_knl_Task_self__E                                          
0001c379  ti_sysbios_knl_Task_setHookContext__E                                
000122b1  ti_sysbios_knl_Task_setPri__E                                        
0001b851  ti_sysbios_knl_Task_sleepTimeout__I                                  
00010ba9  ti_sysbios_knl_Task_sleep__E                                         
00013109  ti_sysbios_knl_Task_startCore__E                                     
0001c3e9  ti_sysbios_knl_Task_startup__E                                       
0001bbad  ti_sysbios_knl_Task_swapReturn                                       
00016b59  ti_sysbios_knl_Task_unblockI__E                                      
2000f1e4  tpseudo                                                              
2000f02c  udp6_stats                                                           
2000f050  udps                                                                 
2000f1f0  upseudo                                                              
2000efe0  vlan_mcb                                                             
0001ebac  xdc_runtime_Assert_E_assertFailed__C                                 
0001769d  xdc_runtime_Assert_raise__I                                          
0001ebb0  xdc_runtime_Core_A_initializedParams__C                              
0001ebb4  xdc_runtime_Core_Module__diagsEnabled__C                             
0001ebb8  xdc_runtime_Core_Module__diagsIncluded__C                            
0001ebbc  xdc_runtime_Core_Module__diagsMask__C                                
0001ec3c  xdc_runtime_Core_Module__id__C                                       
00019c89  xdc_runtime_Core_assignLabel__I                                      
0001863d  xdc_runtime_Core_assignParams__I                                     
00010881  xdc_runtime_Core_constructObject__I                                  
0000d9a1  xdc_runtime_Core_createObject__I                                     
00015d4f  xdc_runtime_Core_deleteObject__I                                     
0001ebc0  xdc_runtime_Error_E_memory__C                                        
0001ebc4  xdc_runtime_Error_Module__diagsEnabled__C                            
0001ebc8  xdc_runtime_Error_Module__diagsIncluded__C                           
0001ebcc  xdc_runtime_Error_Module__diagsMask__C                               
0001ec3e  xdc_runtime_Error_Module__loggerDefined__C                           
0001ebd0  xdc_runtime_Error_Module__loggerFxn8__C                              
0001ebd4  xdc_runtime_Error_Module__loggerObj__C                               
2000fb6e  xdc_runtime_Error_Module__state__V                                   
0001bbd1  xdc_runtime_Error_check__E                                           
0001b05d  xdc_runtime_Error_getMsg__E                                          
0001b35d  xdc_runtime_Error_getSite__E                                         
0001c275  xdc_runtime_Error_init__E                                            
0001ec40  xdc_runtime_Error_maxDepth__C                                        
0000c7d1  xdc_runtime_Error_policyDefault__E                                   
0001ebd8  xdc_runtime_Error_policyFxn__C                                       
0001e2b5  xdc_runtime_Error_policy__C                                          
00015935  xdc_runtime_Error_print__E                                           
0001ebdc  xdc_runtime_Error_raiseHook__C                                       
0001b6bd  xdc_runtime_Error_raiseX__E                                          
000189bd  xdc_runtime_Error_setX__E                                            
0001c281  xdc_runtime_Gate_enterSystem__E                                      
0001c061  xdc_runtime_Gate_leaveSystem__E                                      
0001ebe0  xdc_runtime_IGateProvider_Interface__BASE__C                         
0001ebe4  xdc_runtime_IHeap_Interface__BASE__C                                 
0001ebe8  xdc_runtime_IModule_Interface__BASE__C                               
0001ebec  xdc_runtime_Log_L_error__C                                           
0001b7c9  xdc_runtime_Main_Module_GateProxy_Handle__label__S                   
0001b381  xdc_runtime_Main_Module_GateProxy_Object__delete__S                  
0001c3d9  xdc_runtime_Main_Module_GateProxy_query__E                           
0001b7fd  xdc_runtime_Memory_HeapProxy_Handle__label__S                        
0001b3a1  xdc_runtime_Memory_HeapProxy_Object__delete__S                       
0001c31d  xdc_runtime_Memory_HeapProxy_alloc__E                                
0001c327  xdc_runtime_Memory_HeapProxy_free__E                                 
0001ec42  xdc_runtime_Memory_Module__id__C                                     
2000fca0  xdc_runtime_Memory_Module__state__V                                  
000159a1  xdc_runtime_Memory_alloc__E                                          
0001c28d  xdc_runtime_Memory_calloc__E                                         
0001ebf0  xdc_runtime_Memory_defaultHeapInstance__C                            
0001c071  xdc_runtime_Memory_free__E                                           
0001c299  xdc_runtime_Memory_getMaxDefaultTypeAlign__E                         
0001b6d9  xdc_runtime_Memory_valloc__E                                         
2000fc28  xdc_runtime_Registry_Module__state__V                                
0001b441  xdc_runtime_Registry_findById__E                                     
2000fc30  xdc_runtime_Startup_Module__state__V                                 
00000001  xdc_runtime_Startup__EXECFXN__C                                      
00000001  xdc_runtime_Startup__RESETFXN__C                                     
0001ebf4  xdc_runtime_Startup_execImpl__C                                      
00017a69  xdc_runtime_Startup_exec__E                                          
0001bf0b  xdc_runtime_Startup_exec__I                                          
0001ea7c  xdc_runtime_Startup_firstFxns__A                                     
0001eae8  xdc_runtime_Startup_firstFxns__C                                     
0001eaf0  xdc_runtime_Startup_lastFxns__C                                      
0001ebf8  xdc_runtime_Startup_maxPasses__C                                     
00011043  xdc_runtime_Startup_reset__I                                         
0001eaa0  xdc_runtime_Startup_sfxnRts__A                                       
0001ebfc  xdc_runtime_Startup_sfxnRts__C                                       
0001e988  xdc_runtime_Startup_sfxnTab__A                                       
0001ec00  xdc_runtime_Startup_sfxnTab__C                                       
0000e271  xdc_runtime_Startup_startMods__I                                     
2000edbc  xdc_runtime_SysMin_Module_State_0_outbuf__A                          
2000fb4c  xdc_runtime_SysMin_Module__state__V                                  
0001b461  xdc_runtime_SysMin_Module_startup__E                                 
0001a2e9  xdc_runtime_SysMin_abort__E                                          
0001ec04  xdc_runtime_SysMin_bufSize__C                                        
0001b6f5  xdc_runtime_SysMin_exit__E                                           
0001ec44  xdc_runtime_SysMin_flushAtExit__C                                    
00018a01  xdc_runtime_SysMin_flush__E                                          
0001ec08  xdc_runtime_SysMin_outputFunc__C                                     
0001b17b  xdc_runtime_SysMin_output__I                                         
00019759  xdc_runtime_SysMin_putch__E                                          
0001c081  xdc_runtime_SysMin_ready__E                                          
0001b7c9  xdc_runtime_System_Module_GateProxy_Handle__label__S                 
0001b381  xdc_runtime_System_Module_GateProxy_Object__delete__S                
0001b69d  xdc_runtime_System_Module_GateProxy_enter__E                         
0001be0d  xdc_runtime_System_Module_GateProxy_leave__E                         
0001c3d9  xdc_runtime_System_Module_GateProxy_query__E                         
2000fc38  xdc_runtime_System_Module_State_0_atexitHandlers__A                  
0001ec0c  xdc_runtime_System_Module__gateObj__C                                
2000fc40  xdc_runtime_System_Module__state__V                                  
0001c3cf  xdc_runtime_System_Module_startup__E                                 
0001a2e9  xdc_runtime_System_SupportProxy_abort__E                             
0001b6f5  xdc_runtime_System_SupportProxy_exit__E                              
00018a01  xdc_runtime_System_SupportProxy_flush__E                             
00019759  xdc_runtime_System_SupportProxy_putch__E                             
0001c081  xdc_runtime_System_SupportProxy_ready__E                             
0001ec10  xdc_runtime_System_abortFxn__C                                       
00016a9d  xdc_runtime_System_abortStd__E                                       
0001b711  xdc_runtime_System_abort__E                                          
0001b86b  xdc_runtime_System_aprintf__E                                        
0001bfbd  xdc_runtime_System_aprintf_va__F                                     
00019791  xdc_runtime_System_atexit__E                                         
0001acf7  xdc_runtime_System_avprintf__E                                       
0000455d  xdc_runtime_System_doPrint__I                                        
0001ec14  xdc_runtime_System_exitFxn__C                                        
00016a9d  xdc_runtime_System_exitStd__E                                        
0001bbe9  xdc_runtime_System_exit__E                                           
0001ec18  xdc_runtime_System_extendFxn__C                                      
00018a01  xdc_runtime_System_flush__E                                          
000155cd  xdc_runtime_System_formatNum__I                                      
0001ec1c  xdc_runtime_System_maxAtexitHandlers__C                              
0000e369  xdc_runtime_System_printfExtend__I                                   
0001b885  xdc_runtime_System_printf__E                                         
0001c1b5  xdc_runtime_System_printf_va__F                                      
0001a319  xdc_runtime_System_processAtExit__E                                  
0001a93b  xdc_runtime_System_putchar__I                                        
0001b0cd  xdc_runtime_System_vprintf__E                                        
0001c091  xdc_runtime_System_vsnprintf__E                                      
0001bcc9  xdc_runtime_System_vsprintf__E                                       
0001ec46  xdc_runtime_Text_charCnt__C                                          
0001c404  xdc_runtime_Text_charTab__A                                          
0001ec20  xdc_runtime_Text_charTab__C                                          
0001a6ed  xdc_runtime_Text_cordText__E                                         
0001ec48  xdc_runtime_Text_isLoaded__C                                         
0001ec24  xdc_runtime_Text_nameEmpty__C                                        
0001ec28  xdc_runtime_Text_nameStatic__C                                       
0001ec2c  xdc_runtime_Text_nameUnknown__C                                      
0001e2b6  xdc_runtime_Text_nodeTab__A                                          
0001ec30  xdc_runtime_Text_nodeTab__C                                          
00019cbd  xdc_runtime_Text_printVisFxn__I                                      
00016bb5  xdc_runtime_Text_putLab__E                                           
00012535  xdc_runtime_Text_putMod__E                                           
0001284d  xdc_runtime_Text_putSite__E                                          
0001ec4a  xdc_runtime_Text_registryModsLastId__C                               
0001bc01  xdc_runtime_Text_ropeText__E                                         
0001ec4c  xdc_runtime_Text_unnamedModsLastId__C                                
00017ab9  xdc_runtime_Text_visitRope2__I                                       
0001ec34  xdc_runtime_Text_visitRopeFxn__C                                     
0001c0a1  xdc_runtime_Text_visitRope__I                                        
00018a45  xdc_runtime_Text_xprintf__I                                          


GLOBAL SYMBOLS: SORTED BY Symbol Address 

address   name                                                                 
-------   ----                                                                 
00000000  __ASM__                                                              
00000000  ti_sysbios_family_arm_m3_Hwi_resetVectors                            
00000001  xdc_runtime_Startup__EXECFXN__C                                      
00000001  xdc_runtime_Startup__RESETFXN__C                                     
00000041  TCP6Input                                                            
00000069  __ISA__                                                              
0000007c  __PLAT__                                                             
0000009d  __TARG__                                                             
000000c3  __TRDR__                                                             
00000800  __STACK_SIZE                                                         
00000cf9  TcpInput                                                             
00001961  TcpOutput                                                            
00002219  TCP6Output                                                           
00002ab1  ti_sysbios_family_arm_m3_Hwi_excDumpRegs__I                          
00002ee1  IPTxPacket                                                           
000032e9  Bind6New                                                             
000036cd  getaddrinfo                                                          
00003aa9  ICMPv6RecvRA                                                         
00003e65  IPRxPacket                                                           
0000455b  LED_TOGGLE                                                           
0000455d  xdc_runtime_System_doPrint__I                                        
000048a9  Rt6Create                                                            
00004ecf  NatMsg                                                               
000051ab  _TaskInit                                                            
000051ad  Sock6Connect                                                         
00005459  SockSet                                                              
0000594d  httpTask                                                             
00005e0d  IPReasm                                                              
00006059  ICMPv6RecvRedirect                                                   
00006299  ICMPInput                                                            
000064d5  Sock6Set                                                             
0000670d  UdpInput                                                             
00006945  ICMPv6RecvNS                                                         
00006b5d  ti_catalog_arm_cortexm4_tiva_ce_Boot_sysCtlClockFreqSetI__I          
00006d61  Sock6Recv                                                            
00006f57  SockRecv                                                             
0000714b  Bind6SetLifetime                                                     
00007151  ti_sysbios_family_arm_m3_Hwi_excHandlerMax__I                        
00007345  ICMPv6SendParameterProblem                                           
00007527  _TaskShutdown                                                        
00007529  ICMPv6SendDstUnreachable                                             
00007701  IPv6TxFragPacket                                                     
000078d9  ICMPv6SendTimeExceeded                                               
00007aab  _llSerialServiceCheck                                                
00007aad  IPv6TxPacket                                                         
00007c75  ICMPv6RxPacket                                                       
00007e31  IPv6IPAddressToString                                                
00007fed  EMACSnow_NIMUInit                                                    
000081a5  LLITxIpPacket                                                        
00008355  LLIRxPacket                                                          
00008501  Sock6PcbBind                                                         
000086a9  mmAlloc                                                              
00008845  IGMPInput                                                            
000089dd  NtGetPublicHost                                                      
00008b75  Udp6Input                                                            
00008d09  SockNew                                                              
00009011  NC_NetStart                                                          
00009189  ti_sysbios_family_arm_m3_Hwi_excBusFault__I                          
000092fd  RTCReport                                                            
000095d9  SBRead                                                               
00009743  _llSerialShutdown                                                    
00009745  Sock6New                                                             
00009a15  ICMPv6RecvNA                                                         
00009b7b  EMACRxDMADescriptorListSet                                           
00009b81  ti_sysbios_family_arm_m3_Hwi_excUsageFault__I                        
00009ce5  SockConnect                                                          
00009e45  DHCPOpen                                                             
00009f9d  Rt6Find                                                              
0000a0f1  Rt6Free                                                              
0000a245  Sock6PcbResolve                                                      
0000a399  GPIO_setConfig                                                       
0000a4e9  ti_sysbios_knl_Task_Instance_finalize__E                             
0000a639  ti_sysbios_family_arm_m3_Hwi_excMemFault__I                          
0000a781  BindNew                                                              
0000a8c5  ICMPv6SendNS                                                         
0000aa09  Sock6Send                                                            
0000ab49  TCP6TimeoutCheck                                                     
0000ac89  TcpTimeoutCheck                                                      
0000adc9  CfgAddEntry                                                          
0000af05  Sock6Notify                                                          
0000b041  SockNotify                                                           
0000b17d  SockSend                                                             
0000b2b9  Bind6Free                                                            
0000b529  TCP6GenPacket                                                        
0000b661  ti_sysbios_knl_Semaphore_pend__E                                     
0000b799  DNSGetReply                                                          
0000b8cf  _llUserLedInit                                                       
0000b8d1  ICMPGenPacket                                                        
0000bb39  GPIOPadConfigSet                                                     
0000bd99  strtol                                                               
0000bff1  SockPcbResolve                                                       
0000c115  UdpOutput                                                            
0000c239  LLI6TxIPPacket                                                       
0000c35d  SB6Read                                                              
0000c47f  _llUserLedShutdown                                                   
0000c481  ti_ndk_config_Global_stackThread                                     
0000c5a1  HTTPCli_connect                                                      
0000c6b9  TcpGenPacket                                                         
0000c7d1  xdc_runtime_Error_policyDefault__E                                   
0000c8e9  ICMPv6SendNA                                                         
0000c9fd  NIMUIoctl                                                            
0000cb11  Rt6Modify                                                            
0000cc25  Udp6Output                                                           
0000cd39  NodeTreeFree                                                         
0000ce49  RawInput                                                             
0000cf59  strtoul                                                              
0000d069  RtFind                                                               
0000d175  RtCreate                                                             
0000d27f  _nop                                                                 
0000d281  EMACSnow_emacStart                                                   
0000d389  ti_sysbios_family_arm_lm4_Timer_start__E                             
0000d491  HTTPCli_getResponseField                                             
0000d597  llSerialService                                                      
0000d599  llEnter                                                              
0000d69d  dhcpPacketProcess                                                    
0000d79f  inet_aton                                                            
0000d9a1  xdc_runtime_Core_createObject__I                                     
0000daa1  EK_TM4C1294XL_initEMAC                                               
0000db9d  MLDJoinGroup                                                         
0000dd95  Raw6Input                                                            
0000de91  PipeRecv                                                             
0000df89  Raw6Output                                                           
0000e271  xdc_runtime_Startup_startMods__I                                     
0000e369  xdc_runtime_System_printfExtend__I                                   
0000e461  IPv6RxPacket                                                         
0000e555  TaskGetEnv                                                           
0000e649  ti_sysbios_family_arm_m3_Hwi_dispatch__I                             
0000e73d  BindGetIF                                                            
0000e741  ti_sysbios_knl_Task_Instance_init__E                                 
0000ebfb  __aeabi_idiv0                                                        
0000ebfb  __aeabi_ldiv0                                                        
0000ebfd  IPv6ParseFragHdr                                                     
0000eced  LLI6New                                                              
0000eddd  LLIGenArpPacket                                                      
0000eecd  SockClose                                                            
0000f195  BindGetNext                                                          
0000f199  ti_sysbios_knl_Task_postInit__I                                      
0000f285  TaskSetEnv                                                           
0000f455  HTTPCli_initSockAddr                                                 
0000f53b  Sock6Close                                                           
0000f621  NIMUReceivePacket                                                    
0000f703  ti_sysbios_BIOS_nullFunc__I                                          
0000f705  IPv6DisplayIPAddress                                                 
0000f7e5  TcpTimeoutRexmt                                                      
0000f8c5  SB6Write                                                             
0000f9a1  SBWrite                                                              
0000fa7d  dhcpSocketOpen                                                       
0000fb59  dhcpState                                                            
0000fc35  NodeAdd                                                              
0000fd0d  TCP6PrSetOption                                                      
0000fde5  TCP6TimeoutRexmt                                                     
0000febd  TcpPrSetOption                                                       
0001013d  SockPcbBind                                                          
00010211  ti_sysbios_heaps_HeapMem_alloc__E                                    
000102e5  Bind6DADCheck                                                        
000103b5  Bind6GetGlobalAddress                                                
00010485  ExecOpen                                                             
00010551  ICMPSendRtAdv                                                        
000107b5  dhcpVerifyMessage                                                    
00010881  xdc_runtime_Core_constructObject__I                                  
0001094d  RawEthSockNew                                                        
00010add  TCP6TimeoutKeep                                                      
00010ba5  HTTPCli_construct                                                    
00010ba9  TaskSleep                                                            
00010ba9  ti_sysbios_knl_Task_sleep__E                                         
00010c71  EMACSnow_InitDMADescriptors                                          
00011043  xdc_runtime_Startup_reset__I                                         
00011045  IPv6ParseExtnHeaders                                                 
000111c5  DNSGetHostByName                                                     
00011341  VLANDeinit                                                           
000113fd  NDK_vsprintf                                                         
00011401  ti_sysbios_family_arm_m3_Hwi_excDebugMon__I                          
000114bd  NodeSetRt                                                            
000114c1  ti_sysbios_family_arm_m3_Hwi_excHardFault__I                         
0001157d  RawEthSockPrAttach                                                   
00011581  TaskExit                                                             
00011581  ti_sysbios_knl_Task_exit__E                                          
000116f5  NDK_sendto                                                           
000117ad  Sock6PcbConnect                                                      
00011865  _LLITimeoutCheck                                                     
0001191d  Sock6CreatePacket                                                    
000119d1  TcpTimeoutKeep                                                       
00011b39  ti_sysbios_knl_Task_checkStacks__E                                   
00011c9d  IPv6StringToIPAddress                                                
00011d4d  RawEthSockSet                                                        
00012005  RawEthSockPrDetach                                                   
00012009  ti_sysbios_family_arm_lm4_Timer_enableTiva__I                        
0001215f  Ssock_send                                                           
00012209  SockCreatePacket                                                     
000122b1  ti_sysbios_knl_Task_setPri__E                                        
00012355  IPGetRoute                                                           
000123f5  NDK_setsockopt                                                       
00012495  __TI_auto_init                                                       
00012535  xdc_runtime_Text_putMod__E                                           
000125d5  NIMUAddEthernetHeader                                                
00012673  dhcpBuildRequest                                                     
00012711  main                                                                 
000127af  __aeabi_memcpy                                                       
000127af  __aeabi_memcpy4                                                      
000127af  __aeabi_memcpy8                                                      
000127af  memcpy                                                               
0001284d  xdc_runtime_Text_putSite__E                                          
000128e9  EK_TM4C1294XL_initGeneral                                            
00012981  NC_SystemOpen                                                        
00012ab1  ti_catalog_arm_cortexm4_tiva_ce_Boot_sysCtlClockFreqSet__E           
00012b49  ti_sysbios_knl_Task_schedule__I                                      
00012be1  CfgRemoveEntry                                                       
00012c75  IPv6Init                                                             
00012d09  ti_sysbios_family_arm_m3_Hwi_Instance_init__E                        
00012d9d  SemPend                                                              
00012da1  ti_sysbios_family_arm_m3_Hwi_initNVIC__E                             
00012e35  CfgExecute                                                           
00012ec5  IGMPMsg                                                              
00012f55  mmBulkAlloc                                                          
00013075  SemPost                                                              
00013079  ti_sysbios_knl_Task_Module_startup__E                                
00013109  ti_sysbios_knl_Task_startCore__E                                     
00013199  fdClose                                                              
00013227  DNSResolveQuery                                                      
000132b5  EK_TM4C1294XL_initGPIO                                               
000132b5  GPIO_init                                                            
00013341  IPMsg                                                                
00013459  _mmInit                                                              
000134e5  inet_pton                                                            
000135fd  ti_sysbios_family_arm_m3_TaskSupport_buildTaskStack                  
00013715  PBM_free                                                             
00013825  Sock6PcbResolveChain                                                 
000138ad  SockPcbCtlError                                                      
00013a45  CfgGetEntry                                                          
00013ac9  EMACSnow_processPhyInterrupt                                         
00013b4d  TCP6PrAttach                                                         
00013bd1  TcpPrAttach                                                          
00013c55  mmBulkFree                                                           
00013cd9  mmFree                                                               
00013d5d  SemReset                                                             
00013d61  ti_sysbios_family_arm_m3_Hwi_postInit__I                             
00013de5  NDK_recv                                                             
00013e67  NDK_socket                                                           
00013f6b  DNSGetHostByName2                                                    
00013fed  EMACSnow_emacStop                                                    
000140ed  LLINew                                                               
0001416d  NDK_send                                                             
000141ed  NS_BootTask                                                          
0001426d  PBM_alloc                                                            
000142ed  RawOutput                                                            
0001436d  CfgGetNextEntry                                                      
000143e9  EMACSnow_hwiIntFxn                                                   
000144e1  IGMPJoin                                                             
0001455d  NIMURegister                                                         
000145d9  netIPAddrHook                                                        
00014655  Ssock_getSocket                                                      
00014659  ti_sysbios_heaps_HeapMem_free__E                                     
000146d5  __aeabi_memclr                                                       
000146d5  __aeabi_memclr4                                                      
000146d5  __aeabi_memclr8                                                      
000146d7  __aeabi_memset                                                       
000146d7  __aeabi_memset4                                                      
000146d7  __aeabi_memset8                                                      
000146dd  memset                                                               
000147c9  EMACInit                                                             
00014841  NDK_bind                                                             
000148b9  NDK_connect                                                          
00014931  SB6New                                                               
000149a9  TCP6XmitTimer                                                        
00014a21  TcpXmitTimer                                                         
00014a99  fdOpenSession                                                        
00014b11  llExit                                                               
00014b89  PipeSend                                                             
00014c01  TCP6TimeoutSackRexmt                                                 
00014c79  TcpTimeoutSackRexmt                                                  
00014cf1  Bind6Msg                                                             
00014d65  IGMPLeaveHostGroup                                                   
00014dd9  NIMUShutdown                                                         
00014e4d  RawEthRxPacket                                                       
00014ec1  Sock6CleanPcb                                                        
00014f35  SockPcbConnect                                                       
0001501d  SemCreateBinary                                                      
00015091  ExecClose                                                            
00015101  HTTPCli_sendRequest                                                  
00015251  Sock6Shutdown                                                        
000152c1  SockShutdown                                                         
00015331  dhcpDecodeType                                                       
000153a1  ti_sysbios_knl_Clock_workFunc__E                                     
00015411  IPv6PTRStringToIPAddress                                             
00015481  RtWalkNext                                                           
000155cd  xdc_runtime_System_formatNum__I                                      
0001563d  DbgPrintf                                                            
000156a9  NodeTreeNew                                                          
00015715  RawEthTxPacket                                                       
00015781  UdpChecksum                                                          
00015859  ti_ndk_config_ip_init                                                
000158c5  TaskSelf                                                             
000158c9  ti_sysbios_knl_Swi_restoreHwi__E                                     
00015935  xdc_runtime_Error_print__E                                           
000159a1  xdc_runtime_Memory_alloc__E                                          
00015a0d  TCP6PrInherit                                                        
00015a77  TcpPrInherit                                                         
00015b49  PBM_open                                                             
00015bb1  Sock6ValidateRoute                                                   
00015c19  _RtNodeInsert                                                        
00015c81  __TI_decompress_lzss                                                 
00015d4f  xdc_runtime_Core_deleteObject__I                                     
00015db5  CfgFree                                                              
00015e19  GPIO_hwiIntFxn                                                       
00015e7d  IPv6FragMsg                                                          
00015ee1  PBMQ_enq                                                             
00015f45  Sock6SpawnAbort                                                      
00015fa9  SockSpawnAbort                                                       
0001600d  llTimerTick                                                          
00016071  ti_sysbios_family_arm_lm4_Timer_Module_startup__E                    
000160d5  ti_sysbios_family_arm_m3_Hwi_create                                  
00016139  ti_sysbios_family_arm_m3_Hwi_dispatchC__I                            
0001619d  TaskSetPri                                                           
000161a1  ti_sysbios_knl_Semaphore_post__E                                     
000162cb  MLDLeaveGroup                                                        
0001632d  SBNew                                                                
00016391  CfgGetEntryCnt                                                       
000163f1  FdWaitEvent                                                          
00016451  ICMPv6RecvRS                                                         
000164b1  NIMUUnregister                                                       
00016511  NodeFind                                                             
00016571  RTCMsg                                                               
000165d1  Rt6FindDefaultRouter                                                 
00016631  Sock6Disconnect                                                      
00016691  TcpChecksum                                                          
000166f1  dhcpBuildOptions                                                     
00016751  ti_ndk_config_Global_serviceReport                                   
000167b1  RtRemove                                                             
0001686d  VLANReceivePacket                                                    
000168cd  CfgSetExecuteOrder                                                   
000169e1  ti_sysbios_knl_Swi_create                                            
00016a3d  _llSerialInit                                                        
00016a41  ti_sysbios_knl_Swi_run__I                                            
00016a9d  C$$EXIT                                                              
00016a9d  abort                                                                
00016a9d  xdc_runtime_System_abortStd__E                                       
00016a9d  xdc_runtime_System_exitStd__E                                        
00016aa1  ti_sysbios_knl_Swi_schedule__I                                       
00016afd  ti_sysbios_knl_Task_create                                           
00016b59  ti_sysbios_knl_Task_unblockI__E                                      
00016bb5  xdc_runtime_Text_putLab__E                                           
00016c11  IPv6GetSubnetMaskFromBits                                            
00016c6b  LLI6Update                                                           
00016cc5  RtRedirect                                                           
00016d1f  TcpValidateMetrics                                                   
00016d79  dhcpBuildDecline                                                     
00016dd3  mmCopy                                                               
00016e2d  ti_ndk_config_tcp_init                                               
00016e89  Bind6GetLinkLocalAddress                                             
00016ee1  BindFree                                                             
00016f39  _c_int00                                                             
00016f91  EMACPHYConfigSet                                                     
00016fe9  HOSTwrite                                                            
000170f1  SemCreate                                                            
00017149  ti_sysbios_family_arm_m3_Hwi_initStacks__E                           
000171a1  GPIOIntTypeSet                                                       
000171f7  IPv6Layer4ComputeChecksum                                            
000172a5  CfgEntryDeRef                                                        
000172f9  HTTPCli_sendField                                                    
0001734d  IGMPLeave                                                            
000173a1  RawEthSockPcbAttach                                                  
000173f5  SockCleanPcb                                                         
00017449  TCP6TimeoutPersist                                                   
0001749d  TcpTimeoutPersist                                                    
000175ed  list_get_head                                                        
000175f1  ti_sysbios_family_arm_lm4_Timer_initDevice__I                        
00017645  list_get_next                                                        
00017649  ti_sysbios_knl_Swi_Instance_init__E                                  
0001769d  xdc_runtime_Assert_raise__I                                          
000176f1  DNSReplyFree                                                         
00017743  TCP6PrDetach                                                         
00017795  TcpPrDetach                                                          
000177e9  GPIO_setCallback                                                     
00017839  GPIO_write                                                           
00017889  IsICMPv6ErrorPkt                                                     
00017929  SysCtlPeripheralReset                                                
000179c9  ti_sysbios_family_arm_m3_Hwi_Module_startup__E                       
00017a19  ti_sysbios_knl_Clock_Instance_init__E                                
00017a69  xdc_runtime_Startup_exec__E                                          
00017ab9  xdc_runtime_Text_visitRope2__I                                       
00017b09  NodeDeRef                                                            
00017bf1  NtAddNetwork                                                         
00017c3d  SockValidateRoute                                                    
00017c89  atoi                                                                 
00017cd5  copy_in                                                              
00017d21  fdint_lockfd                                                         
00017d71  ti_sysbios_heaps_HeapMem_getStats__E                                 
00017dbd  ti_sysbios_BIOS_RtsGateProxy_enter__E                                
00017dc1  ti_sysbios_knl_Swi_runLoop__I                                        
00017e0d  ti_sysbios_BIOS_RtsGateProxy_leave__E                                
00017e11  ti_sysbios_knl_Task_allBlockedFunction__I                            
00017ea7  SockDisconnect                                                       
00017ef1  TCP6ValidateMetrics                                                  
00017f3d  TimerNew                                                             
00017f87  CfgNew                                                               
00017fd1  GPIOPinConfigure                                                     
00018019  LLIMsg                                                               
000180a9  NodeWalk                                                             
000180f1  PBM_copy                                                             
00018139  RawEthSockPcbDetach                                                  
00018181  SockPcbResolveChain                                                  
000181c9  TCP6Drop                                                             
00018211  TcpDrop                                                              
00018259  _LLIExpListInsert                                                    
000182a1  _RtExpListInsert                                                     
000182e9  fdint_unlockfd                                                       
00018331  ti_sysbios_family_arm_lm4_Timer_enableTimers__I                      
00018379  ti_sysbios_family_arm_m3_Hwi_disableInterrupt__E                     
00018379  ti_sysbios_hal_Hwi_HwiProxy_disableInterrupt__E                      
00018379  ti_sysbios_hal_Hwi_disableInterrupt__E                               
000183c1  ti_sysbios_family_arm_m3_Hwi_enableInterrupt__E                      
000183c1  ti_sysbios_hal_Hwi_HwiProxy_enableInterrupt__E                       
000183c1  ti_sysbios_hal_Hwi_enableInterrupt__E                                
00018409  ti_sysbios_family_arm_m3_Hwi_excReserved__I                          
00018451  ti_sysbios_knl_Task_deleteTerminatedTasksFunc__I                     
00018499  NtIfIdx2Ip                                                           
000184df  RawEthSockSend                                                       
00018525  Sock6Bind                                                            
0001856b  TCP6PrCtlError                                                       
000185b1  TcpPrCtlError                                                        
000185f7  mmZeroInit                                                           
0001863d  xdc_runtime_Core_assignParams__I                                     
000186c9  ICMPChecksum                                                         
0001870d  IPReasmFree                                                          
00018751  LLIGetValidTime                                                      
00018795  RouteMsg                                                             
000187d9  RtWalkEnd                                                            
0001881d  SockPcbDetach                                                        
000188a5  llTimerGetTime                                                       
000188e9  ti_sysbios_family_arm_lm4_Timer_isrStub__E                           
0001892d  ti_sysbios_family_arm_lm4_Timer_masterEnable__I                      
00018931  ti_sysbios_family_arm_m3_Hwi_getStackInfo__E                         
00018931  ti_sysbios_hal_Hwi_HwiProxy_getStackInfo__E                          
00018931  ti_sysbios_hal_Hwi_getStackInfo__E                                   
00018975  ti_sysbios_family_arm_m3_Hwi_delete                                  
00018979  ti_sysbios_knl_Swi_post__E                                           
000189bd  xdc_runtime_Error_setX__E                                            
00018a01  xdc_runtime_SysMin_flush__E                                          
00018a01  xdc_runtime_System_SupportProxy_flush__E                             
00018a01  xdc_runtime_System_flush__E                                          
00018a45  xdc_runtime_Text_xprintf__I                                          
00018a89  TCP6PrSendOOB                                                        
00018acb  TcpPrSendOOB                                                         
00018b0d  fdCloseSession                                                       
00018b4f  DNSBuildRequest                                                      
00018b8f  HTTPCli_readResponseBody                                             
00018c11  LLI6Msg                                                              
00018c51  LLIValidateRoute                                                     
00018c91  Route6Msg                                                            
00018cd1  SockPcbRtChange                                                      
00018d11  TCP6PrSend                                                           
00018d51  TcpPrSend                                                            
00018d91  __aeabi_uidiv                                                        
00018d91  __aeabi_uidivmod                                                     
00018dd1  strtok                                                               
00018e51  ti_sysbios_family_arm_lm4_Timer_startup__E                           
00018e51  ti_sysbios_knl_Clock_TimerProxy_startup__E                           
00018e91  ti_sysbios_heaps_HeapMem_Instance_init__E                            
00018ed1  DHCPClose                                                            
00018f4f  TCP6PrDisconnect                                                     
00018f8d  TaskCreate                                                           
00018fcb  TcpPrDisconnect                                                      
00019009  CfgEntryGetData                                                      
00019045  EMACIntDisable                                                       
000190f9  RtWalkBegin                                                          
00019135  TCP6PrConnect                                                        
00019171  TCP6SetPersist                                                       
000191ad  TcpPrConnect                                                         
000191e9  TcpSetPersist                                                        
00019261  _RtNodeRemove                                                        
0001929d  _llTimerInit                                                         
000192d9  strncasecmp                                                          
00019315  ti_sysbios_family_arm_m3_TaskSupport_Module__startupDone__S          
00019315  ti_sysbios_knl_Task_SupportProxy_Module__startupDone__S              
00019319  ti_sysbios_family_arm_m3_Hwi_excSvCall__I                            
00019355  ti_sysbios_heaps_HeapMem_Module_GateProxy_enter__E                   
00019359  ti_sysbios_heaps_HeapMem_init__I                                     
00019395  ti_sysbios_heaps_HeapMem_Module_GateProxy_leave__E                   
00019399  ti_sysbios_knl_Swi_restore__E                                        
000193d5  EMACIntEnable                                                        
00019411  EMACConfigGet                                                        
00019449  IPReasmTimeout                                                       
00019481  NodeGetRt                                                            
000194b9  Sock6PcbRtChange                                                     
000194f1  SysCtlPeripheralReady                                                
00019529  TCP6Close                                                            
00019561  TcpClose                                                             
00019599  TimerHSTick                                                          
000195d1  __TI_writemsg                                                        
000195ff  C$$IO$$                                                              
00019609  dhcpBuildDiscover                                                    
00019641  dhcpOptionsClear                                                     
00019679  fdint_waitevent                                                      
000196b1  ti_sysbios_family_arm_m3_Hwi_excNoIsr__I                             
000196e9  ti_sysbios_knl_Clock_create                                          
00019721  ti_sysbios_knl_Task_processVitalTaskFlag__I                          
00019759  xdc_runtime_SysMin_putch__E                                          
00019759  xdc_runtime_System_SupportProxy_putch__E                             
00019791  xdc_runtime_System_atexit__E                                         
000197c9  IPChecksum                                                           
000197ff  Sock6IntAbort                                                        
00019835  Ssock_recv                                                           
0001986b  strncpy                                                              
000198a1  CfgSetService                                                        
000198d5  EMACConfigSet                                                        
00019909  EMACIntClear                                                         
0001993d  EMACSnow_emacPoll                                                    
00019971  EMACSnow_isLinkUp                                                    
000199a5  EMAC_init                                                            
000199d9  IPv6GetRoute                                                         
00019a0d  NIMUFindByName                                                       
00019a41  NIMUInit                                                             
00019a75  RawEthSockNotify                                                     
00019aa9  SockPrCtlError                                                       
00019add  SysCtlPeripheralEnable                                               
00019b11  __TI_readmsg                                                         
00019b79  stricmp                                                              
00019bad  ti_sysbios_knl_Clock_TimerProxy_getMaxTicks__E                       
00019bb1  ti_sysbios_family_arm_m3_Hwi_Instance_finalize__E                    
00019be5  ti_sysbios_knl_Queue_destruct                                        
00019be9  ti_sysbios_family_arm_m3_Hwi_excNmi__I                               
00019c1d  ti_sysbios_knl_Semaphore_delete                                      
00019c21  ti_sysbios_hal_Hwi_checkStack                                        
00019c55  ti_sysbios_knl_Semaphore_create                                      
00019c89  xdc_runtime_Core_assignLabel__I                                      
00019cbd  xdc_runtime_Text_printVisFxn__I                                      
00019cf1  CfgGetImmediate                                                      
00019d23  RtDeRef                                                              
00019d55  RtSetFailure                                                         
00019d87  SB6Flush                                                             
00019db9  SB6SetMax                                                            
00019deb  SBFlush                                                              
00019e1d  SBSetMax                                                             
00019e4f  SockIntAbort                                                         
00019ee5  ti_sysbios_knl_Semaphore_destruct                                    
00019ee9  ti_sysbios_hal_Hwi_initStack                                         
00019f1b  EMACTxDMADescriptorListSet                                           
00019f21  ti_sysbios_knl_Semaphore_pendTimeout__I                              
00019f55  printError                                                           
00019f89  Bind6FindByHost                                                      
00019fb9  Bind6FindByNet                                                       
00019fe9  EMACAddrSet                                                          
0001a049  NS_PreBoot                                                           
0001a079  Sock6PcbDetach                                                       
0001a0a9  SockBind                                                             
0001a0d9  dhcpPacketSend                                                       
0001a109  list_remove_node                                                     
0001a169  ti_sysbios_BIOS_atExitFunc__I                                        
0001a199  ti_sysbios_family_arm_lm4_Timer_stop__E                              
0001a1c9  ti_sysbios_family_arm_m3_TaskSupport_start__E                        
0001a1c9  ti_sysbios_knl_Task_SupportProxy_start__E                            
0001a1f9  ti_sysbios_gates_GateHwi_Object__create__S                           
0001a229  ti_sysbios_gates_GateMutex_Object__create__S                         
0001a259  ti_sysbios_gates_GateMutex_enter__E                                  
0001a289  ti_sysbios_heaps_HeapMem_Object__create__S                           
0001a2b9  ti_sysbios_knl_Semaphore_construct                                   
0001a2e9  xdc_runtime_SysMin_abort__E                                          
0001a2e9  xdc_runtime_System_SupportProxy_abort__E                             
0001a319  xdc_runtime_System_processAtExit__E                                  
0001a377  SBFree                                                               
0001a3a5  ff_memalloc                                                          
0001a3a5  malloc                                                               
0001a3d3  strcasecmp                                                           
0001a401  EMACIntStatus                                                        
0001a42d  FdSignalEvent                                                        
0001a459  IGMPTestGroup                                                        
0001a485  LLI6Free                                                             
0001a4b1  NDK_hookCreate                                                       
0001a509  NIMUPacketServiceCheck                                               
0001a535  PipeClose                                                            
0001a561  SockPcbAttach                                                        
0001a58d  _LLIExpListRemove                                                    
0001a5b9  _LLITimeoutFlush                                                     
0001a5e5  _RtExpListRemove                                                     
0001a63d  strncmp                                                              
0001a669  ti_sysbios_knl_Clock_doTick__I                                       
0001a695  ti_sysbios_knl_Queue_construct                                       
0001a6c1  ti_sysbios_knl_Task_restore__E                                       
0001a6ed  xdc_runtime_Text_cordText__E                                         
0001a719  GPIODirModeSet                                                       
0001a743  GetHexValue                                                          
0001a797  IPv6CompareAddress                                                   
0001a7eb  MLDTestGroup                                                         
0001a815  PBMQ_deq                                                             
0001a83f  Rt6Update                                                            
0001a869  SB6Free                                                              
0001a911  strspn                                                               
0001a93b  xdc_runtime_System_putchar__I                                        
0001a965  Bind6FindByIF                                                        
0001a98d  BindFindByNet                                                        
0001a9b5  ExecTimer                                                            
0001aa05  LLIFree                                                              
0001aa2d  NC_SystemClose                                                       
0001aa55  NIMUCreatePacket                                                     
0001aa7d  NIMUPacketService                                                    
0001aaa5  Sock6PrCtlError                                                      
0001ab6d  VLANInit                                                             
0001ab95  dhcpPacketReceive                                                    
0001abe5  ti_sysbios_knl_Swi_delete                                            
0001abe9  ti_sysbios_knl_Clock_addI__E                                         
0001ac11  ti_sysbios_knl_Swi_Module_startup__E                                 
0001ac39  CfgEntryInfo                                                         
0001ac5f  EMACPHYRead                                                          
0001ac85  EMACPHYWrite                                                         
0001acab  RawEthSockClose                                                      
0001acd1  ti_sysbios_family_arm_m3_Hwi_pendSV__I                               
0001acf5  ti_sysbios_family_arm_m3_Hwi_return                                  
0001acf7  xdc_runtime_System_avprintf__E                                       
0001ad1d  BindFindByHost                                                       
0001ad41  BindGetIFByDBCast                                                    
0001ad65  EMACSnow_pkt_service                                                 
0001adad  HTTPCli_disconnect                                                   
0001add1  NIMUFindByIndex                                                      
0001adf5  RTCAddHook                                                           
0001ae19  RawEthSockPcbFind                                                    
0001ae61  RtSetTimeout                                                         
0001ae85  Sock6PcbAttach                                                       
0001aea9  Sock6PcbCleanup                                                      
0001aecd  SockPcbCleanup                                                       
0001aef1  TcpTimeoutWait2                                                      
0001af5d  strcspn                                                              
0001af81  ti_sysbios_BIOS_errorRaiseHook__I                                    
0001afa5  ti_sysbios_BIOS_registerRTSLock__I                                   
0001afc9  ti_sysbios_BIOS_removeRTSLock__I                                     
0001afed  ti_sysbios_BIOS_startFunc__I                                         
0001b011  ti_sysbios_BIOS_RtsGateProxy_Object__delete__S                       
0001b011  ti_sysbios_gates_GateMutex_Object__delete__S                         
0001b011  ti_sysbios_heaps_HeapMem_Module_GateProxy_Object__delete__S          
0001b035  ti_sysbios_knl_Task_delete                                           
0001b039  ti_sysbios_knl_Clock_Module_startup__E                               
0001b05d  xdc_runtime_Error_getMsg__E                                          
0001b061  ti_sysbios_knl_Semaphore_Instance_init__E                            
0001b085  ti_sysbios_knl_Semaphore_Object__delete__S                           
0001b0a9  ti_sysbios_knl_Task_restoreHwi__E                                    
0001b0cd  xdc_runtime_System_vprintf__E                                        
0001b0f1  CfgEntryRef                                                          
0001b113  Rt6GetNetworkAddr                                                    
0001b159  ti_sysbios_family_arm_lm4_Timer_write__I                             
0001b17b  xdc_runtime_SysMin_output__I                                         
0001b19d  Bind6IF2IPHost                                                       
0001b1bd  NC_BootComplete                                                      
0001b1fd  RTCRemoveHook                                                        
0001b21d  Rt6IsDefaultRoute                                                    
0001b23d  TCP6TimeoutRemove                                                    
0001b25d  TCP6TimeoutWait2                                                     
0001b27d  TcpTimeoutRemove                                                     
0001b2bd  isValidHexDigit                                                      
0001b2dd  list_cat                                                             
0001b2fd  ti_sysbios_BIOS_rtsLock__I                                           
0001b31d  ti_sysbios_family_arm_m3_Hwi_Object__delete__S                       
0001b31d  ti_sysbios_hal_Hwi_HwiProxy_Object__delete__S                        
0001b33d  ti_sysbios_family_arm_m3_Hwi_excHandlerAsm__I                        
0001b35d  xdc_runtime_Error_getSite__E                                         
0001b361  ti_sysbios_family_arm_m3_Hwi_excHandler__I                           
0001b381  ti_sysbios_gates_GateHwi_Object__delete__S                           
0001b381  xdc_runtime_Main_Module_GateProxy_Object__delete__S                  
0001b381  xdc_runtime_System_Module_GateProxy_Object__delete__S                
0001b3a1  ti_sysbios_heaps_HeapMem_Object__delete__S                           
0001b3a1  xdc_runtime_Memory_HeapProxy_Object__delete__S                       
0001b3c1  ti_sysbios_knl_Idle_run__E                                           
0001b3e1  ti_sysbios_knl_Semaphore_Object__destruct__S                         
0001b401  ti_sysbios_knl_Swi_Object__delete__S                                 
0001b421  ti_sysbios_knl_Task_Object__delete__S                                
0001b441  xdc_runtime_Registry_findById__E                                     
0001b461  xdc_runtime_SysMin_Module_startup__E                                 
0001b481  fdError                                                              
0001b49f  list_remove                                                          
0001b4bd  strcat                                                               
0001b4db  ti_sysbios_family_xxx_Hwi_switchAndRunFunc                           
0001b4f9  BindFindByIF                                                         
0001b54d  IPv6IsLinkLocal                                                      
0001b569  NDK_sprintf                                                          
0001b585  NIMUAddHeader                                                        
0001b5a1  Sock6PrDetach                                                        
0001b5bd  SockPrDetach                                                         
0001b5d9  Ssock_destruct                                                       
0001b5f5  TaskDestroy                                                          
0001b62d  ti_ndk_config_global_taskCreateHook                                  
0001b649  ti_sysbios_gates_GateMutex_Instance_init__E                          
0001b665  ti_sysbios_knl_Queue_Object__destruct__S                             
0001b681  ti_sysbios_knl_Queue_put__E                                          
0001b69d  xdc_runtime_System_Module_GateProxy_enter__E                         
0001b6a1  ti_sysbios_knl_Task_enter__I                                         
0001b6bd  xdc_runtime_Error_raiseX__E                                          
0001b6d9  xdc_runtime_Memory_valloc__E                                         
0001b6f5  xdc_runtime_SysMin_exit__E                                           
0001b6f5  xdc_runtime_System_SupportProxy_exit__E                              
0001b711  xdc_runtime_System_abort__E                                          
0001b72d  BindGetIP                                                            
0001b747  Sock6SetOOBMark                                                      
0001b761  SockSetOOBMark                                                       
0001b77b  fdint_getfdt                                                         
0001b795  ff_memfree                                                           
0001b795  free                                                                 
0001b795  mem_Free                                                             
0001b7af  ti_sysbios_family_arm_m3_Hwi_Handle__label__S                        
0001b7af  ti_sysbios_hal_Hwi_HwiProxy_Handle__label__S                         
0001b7c9  ti_sysbios_gates_GateHwi_Handle__label__S                            
0001b7c9  xdc_runtime_Main_Module_GateProxy_Handle__label__S                   
0001b7c9  xdc_runtime_System_Module_GateProxy_Handle__label__S                 
0001b7e3  ti_sysbios_BIOS_RtsGateProxy_Handle__label__S                        
0001b7e3  ti_sysbios_gates_GateMutex_Handle__label__S                          
0001b7e3  ti_sysbios_heaps_HeapMem_Module_GateProxy_Handle__label__S           
0001b7fd  ti_sysbios_heaps_HeapMem_Handle__label__S                            
0001b7fd  xdc_runtime_Memory_HeapProxy_Handle__label__S                        
0001b817  ti_sysbios_knl_Swi_Handle__label__S                                  
0001b831  ti_sysbios_knl_Task_Handle__label__S                                 
0001b84b  GPIOIntClear                                                         
0001b851  ti_sysbios_knl_Task_sleepTimeout__I                                  
0001b86b  xdc_runtime_System_aprintf__E                                        
0001b885  xdc_runtime_System_printf__E                                         
0001b8a1  EMACSnow_emacSend                                                    
0001b8b9  IPRtChange                                                           
0001b8d1  IPv6IsMulticast                                                      
0001b901  RawEthSockPcbCleanup                                                 
0001bab1  TCP6TimeoutAdd                                                       
0001bac9  TcpTimeoutAdd                                                        
0001bae1  _args_main                                                           
0001baf9  dhcpSocketClose                                                      
0001bb11  freeaddrinfo                                                         
0001bb29  list_add                                                             
0001bb41  strcmp                                                               
0001bb59  ti_sysbios_BIOS_rtsUnlock__I                                         
0001bb71  ti_sysbios_family_arm_lm4_Timer_Module__startupDone__F               
0001bb71  ti_sysbios_family_arm_lm4_Timer_Module__startupDone__S               
0001bb71  ti_sysbios_knl_Clock_TimerProxy_Module__startupDone__S               
0001bb89  ti_sysbios_family_arm_m3_Hwi_Module__startupDone__F                  
0001bb89  ti_sysbios_family_arm_m3_Hwi_Module__startupDone__S                  
0001bb89  ti_sysbios_hal_Hwi_HwiProxy_Module__startupDone__S                   
0001bba1  ti_sysbios_family_arm_m3_TaskSupport_swap__E                         
0001bba1  ti_sysbios_knl_Task_SupportProxy_swap__E                             
0001bbad  ti_sysbios_knl_Task_swapReturn                                       
0001bbb9  ti_sysbios_gates_GateMutex_leave__E                                  
0001bbd1  xdc_runtime_Error_check__E                                           
0001bbe9  xdc_runtime_System_exit__E                                           
0001bc01  xdc_runtime_Text_ropeText__E                                         
0001bc19  EMACReset                                                            
0001bc2f  EMACRxEnable                                                         
0001bc45  EMACTxEnable                                                         
0001bc5b  HTTPCli_destruct                                                     
0001bc71  HTTPCli_readRawResponseBody                                          
0001bc87  fdint_freefdt                                                        
0001bc9d  strchr                                                               
0001bcb3  ti_sysbios_BIOS_exitFunc__I                                          
0001bcc9  xdc_runtime_System_vsprintf__E                                       
0001bcdf  BindIPHost2IF                                                        
0001bcf5  FlashUserGet                                                         
0001bd09  HTTPCli_getResponseStatus                                            
0001bd1d  LLI6IsValid                                                          
0001bd31  NC_NetStop                                                           
0001bd45  NDK_hookExit                                                         
0001bd59  NIMUSendPacket                                                       
0001bd6d  NtRemoveNetwork                                                      
0001bd81  RawEthSockPcbInit                                                    
0001bd95  Ssock_construct                                                      
0001bda9  TimerFree                                                            
0001bdbd  strcpy                                                               
0001bdd1  strlen                                                               
0001bde5  ti_ndk_config_global_taskExitHook                                    
0001bdf9  ti_sysbios_family_arm_m3_Hwi_Object__get__S                          
0001be0d  xdc_runtime_System_Module_GateProxy_leave__E                         
0001be11  ti_sysbios_family_arm_m3_Hwi_switchFromBootStack__E                  
0001be11  ti_sysbios_hal_Hwi_HwiProxy_switchFromBootStack__E                   
0001be11  ti_sysbios_hal_Hwi_switchFromBootStack__E                            
0001be25  ti_sysbios_heaps_HeapMem_Object__get__S                              
0001be39  ti_sysbios_knl_Swi_Object__get__S                                    
0001be4d  ti_sysbios_knl_Task_Object__first__S                                 
0001be61  ti_sysbios_knl_Task_Object__next__S                                  
0001be75  GPIOPinTypeEthernetLED                                               
0001be87  Sock6PrAttach                                                        
0001be99  Sock6SetOOBData                                                      
0001beab  SockPrAttach                                                         
0001bebd  SockSetOOBData                                                       
0001becf  inet_addr                                                            
0001bee1  ti_sysbios_hal_Hwi_Module_startup__E                                 
0001bef3  GPIOPinWrite                                                         
0001bef9  ti_sysbios_knl_Semaphore_reset__E                                    
0001bf0b  xdc_runtime_Startup_exec__I                                          
0001bf1d  ti_catalog_arm_cortexm4_tiva_ce_Boot_init__I                         
0001bf2d  BindIF2IPHost                                                        
0001bf3d  BindIFNet2IPHost                                                     
0001bf4d  EMACFrameFilterSet                                                   
0001bf5d  ExecHRef                                                             
0001bf6d  LLI6IsDead                                                           
0001bf7d  LLI6IsRouter                                                         
0001bf8d  NC_IPUpdate                                                          
0001bf9d  NIMUGetRsvdSizeInfo                                                  
0001bfad  Rt6IsLocalRoute                                                      
0001bfbd  xdc_runtime_System_aprintf_va__F                                     
0001bfc1  ti_sysbios_BIOS_exit__E                                              
0001bfd1  ti_sysbios_BIOS_getCpuFreq__E                                        
0001bfe1  ti_sysbios_BIOS_setThreadType__E                                     
0001bff1  osi_start                                                            
0001bff1  ti_sysbios_BIOS_start__E                                             
0001c001  ti_sysbios_family_arm_m3_TaskSupport_glue                            
0001c011  ti_sysbios_gates_GateMutex_Instance_finalize__E                      
0001c021  ti_sysbios_knl_Semaphore_Instance_finalize__E                        
0001c031  ti_sysbios_knl_Swi_disable__E                                        
0001c041  ti_sysbios_knl_Task_Object__get__S                                   
0001c051  osi_TaskDisable                                                      
0001c051  ti_sysbios_knl_Task_disable__E                                       
0001c061  xdc_runtime_Gate_leaveSystem__E                                      
0001c071  xdc_runtime_Memory_free__E                                           
0001c081  xdc_runtime_SysMin_ready__E                                          
0001c081  xdc_runtime_System_SupportProxy_ready__E                             
0001c091  xdc_runtime_System_vsnprintf__E                                      
0001c0a1  xdc_runtime_Text_visitRope__I                                        
0001c0b1  EMACSnow_emacioctl                                                   
0001c0bf  ExecLowResource                                                      
0001c0cd  GPIOIntStatus                                                        
0001c0db  __TI_decompress_none                                                 
0001c0f9  ti_sysbios_knl_Idle_loop__E                                          
0001c109  ti_sysbios_knl_Queue_empty__E                                        
0001c119  BindGetFirst                                                         
0001c125  CfgSetDefault                                                        
0001c131  EMACSnow_init                                                        
0001c13d  NDK_hookInit                                                         
0001c149  NIMUSetRsvdSizeInfo                                                  
0001c155  NotifyLowResource                                                    
0001c161  PBM_close                                                            
0001c16d  SemDelete                                                            
0001c179  _llTimerShutdown                                                     
0001c185  _register_lock                                                       
0001c191  _register_unlock                                                     
0001c19d  __TI_zero_init                                                       
0001c1a9  llTimerGetStartTime                                                  
0001c1b5  xdc_runtime_System_printf_va__F                                      
0001c1b9  ti_sysbios_BIOS_getThreadType__E                                     
0001c1c9  ti_sysbios_family_arm_lm4_Timer_getMaxTicks__E                       
0001c1d5  ti_sysbios_family_arm_m3_Hwi_Params__init__S                         
0001c1d5  ti_sysbios_hal_Hwi_HwiProxy_Params__init__S                          
0001c1e1  OEMSysCritOn                                                         
0001c1e1  ti_sysbios_family_arm_m3_Hwi_disableFxn__E                           
0001c1e1  ti_sysbios_hal_Hwi_HwiProxy_disable__E                               
0001c1f1  ti_sysbios_family_arm_m3_TaskSupport_checkStack__E                   
0001c1f1  ti_sysbios_knl_Task_SupportProxy_checkStack__E                       
0001c201  ti_sysbios_family_arm_m3_TaskSupport_getStackAlignment__E            
0001c201  ti_sysbios_knl_Task_SupportProxy_getStackAlignment__E                
0001c211  ti_sysbios_gates_GateHwi_enter__E                                    
0001c21d  ti_sysbios_knl_Clock_Params__init__S                                 
0001c229  ti_sysbios_knl_Clock_getTicks__E                                     
0001c235  ti_sysbios_knl_Queue_Object__get__S                                  
0001c241  ti_sysbios_knl_Semaphore_Params__init__S                             
0001c24d  ti_sysbios_knl_Task_Params__init__S                                  
0001c259  ti_sysbios_knl_Task_getIdleTask__E                                   
0001c269  ti_sysbios_knl_Task_self__E                                          
0001c275  xdc_runtime_Error_init__E                                            
0001c281  xdc_runtime_Gate_enterSystem__E                                      
0001c28d  xdc_runtime_Memory_calloc__E                                         
0001c299  xdc_runtime_Memory_getMaxDefaultTypeAlign__E                         
0001c2a5  Bind6GetInterfaceHandle                                              
0001c2af  Bind6GetLifetime                                                     
0001c2b9  HTTPCli_setRequestFields                                             
0001c2c3  HTTPCli_setResponseFields                                            
0001c2cd  LLI6GetNetDevice                                                     
0001c2d7  LLI6IncRefCount                                                      
0001c2e1  Rt6GetIF                                                             
0001c2eb  Rt6GetLLI                                                            
0001c2f5  Rt6GetMTU                                                            
0001c2ff  Rt6IncRefCount                                                       
0001c309  fdint_signalevent                                                    
0001c313  fdint_signaltimeout                                                  
0001c31d  xdc_runtime_Memory_HeapProxy_alloc__E                                
0001c327  xdc_runtime_Memory_HeapProxy_free__E                                 
0001c331  EMACTxDMAPollDemand                                                  
0001c339  LLI6SetIncomplete                                                    
0001c349  TaskBlock                                                            
0001c351  __aeabi_errno_addr                                                   
0001c359  ti_sysbios_family_arm_lm4_Timer_masterDisable__I                     
0001c361  ti_sysbios_family_arm_m3_Hwi_doSwiRestore__I                         
0001c369  ti_sysbios_family_arm_m3_Hwi_startup__E                              
0001c369  ti_sysbios_hal_Hwi_HwiProxy_startup__E                               
0001c369  ti_sysbios_hal_Hwi_startup__E                                        
0001c371  ti_sysbios_knl_Task_getHookContext__E                                
0001c379  ti_sysbios_knl_Task_setHookContext__E                                
0001c381  SysCtlDelay                                                          
0001c387  TCP6PrRecv                                                           
0001c38d  TcpPrRecv                                                            
0001c393  __xdc__init                                                          
0001c3a1  ti_sysbios_family_arm_m3_Hwi_doTaskRestore__I                        
0001c3a9  OEMSysCritOff                                                        
0001c3a9  ti_sysbios_family_arm_m3_Hwi_restoreFxn__E                           
0001c3a9  ti_sysbios_hal_Hwi_HwiProxy_restore__E                               
0001c3b1  ti_sysbios_gates_GateHwi_leave__E                                    
0001c3b9  ti_sysbios_heaps_HeapMem_isBlocking__E                               
0001c3c1  ti_sysbios_knl_Queue_Instance_init__E                                
0001c3c9  ti_sysbios_knl_Swi_startup__E                                        
0001c3cf  xdc_runtime_System_Module_startup__E                                 
0001c3d9  ti_sysbios_gates_GateHwi_query__E                                    
0001c3d9  xdc_runtime_Main_Module_GateProxy_query__E                           
0001c3d9  xdc_runtime_System_Module_GateProxy_query__E                         
0001c3e1  ti_sysbios_BIOS_RtsGateProxy_query__E                                
0001c3e1  ti_sysbios_gates_GateMutex_query__E                                  
0001c3e1  ti_sysbios_heaps_HeapMem_Module_GateProxy_query__E                   
0001c3e9  ti_sysbios_knl_Task_startup__E                                       
0001c3f1  ti_sysbios_gates_GateHwi_Instance_init__E                            
0001c3f9  ti_sysbios_knl_Clock_logTick__E                                      
0001c401  ti_sysbios_knl_Swi_Instance_finalize__E                              
0001c404  xdc_runtime_Text_charTab__A                                          
0001dd22  ti_catalog_arm_cortexm4_tiva_ce_Boot_Module__id__C                   
0001e1b4  _ctypes_                                                             
0001e2b5  xdc_runtime_Error_policy__C                                          
0001e2b6  xdc_runtime_Text_nodeTab__A                                          
0001e38a  ti_sysbios_family_arm_m3_Hwi_Module__id__C                           
0001e5a8  Code2Err                                                             
0001e682  ti_sysbios_hal_Hwi_Module__id__C                                     
0001e684  ti_sysbios_knl_Task_Object__PARAMS__C                                
0001e6f0  ti_sysbios_family_arm_m3_Hwi_Object__PARAMS__C                       
0001e720  ti_sysbios_heaps_HeapMem_Module__FXNS__C                             
0001e748  ti_sysbios_knl_Swi_Object__PARAMS__C                                 
0001e770  IPV6_MAX_MULTICAST_SOLICIT                                           
0001e774  IPV6_MAX_UNICAST_SOLICIT                                             
0001e778  IPV6_RETRANS_TIME                                                    
0001e77c  IPV6_DELAY_FIRST_PROBE_TIME                                          
0001e780  IPV6_REACHABLE_TIME                                                  
0001e784  IPV6_MAX_RTR_SOLICITATION_DELAY                                      
0001e788  IPV6_RTR_SOLICITATION_INTERVAL                                       
0001e78c  IPV6_MAX_RTR_SOLICITATIONS                                           
0001e790  INFINITE_LT                                                          
0001e794  ti_sysbios_gates_GateHwi_Module__FXNS__C                             
0001e7b8  ti_sysbios_gates_GateMutex_Module__FXNS__C                           
0001e7dc  ti_sysbios_heaps_HeapMem_Object__PARAMS__C                           
0001e800  ti_sysbios_knl_Clock_Object__PARAMS__C                               
0001e824  ti_sysbios_knl_Semaphore_Object__PARAMS__C                           
0001e868  ti_sysbios_family_arm_m3_Hwi_Object__DESC__C                         
0001e888  ti_sysbios_gates_GateHwi_Object__DESC__C                             
0001e8a8  ti_sysbios_gates_GateMutex_Object__DESC__C                           
0001e8c8  ti_sysbios_heaps_HeapMem_Object__DESC__C                             
0001e8e8  ti_sysbios_knl_Clock_Object__DESC__C                                 
0001e908  ti_sysbios_knl_Queue_Object__DESC__C                                 
0001e928  ti_sysbios_knl_Semaphore_Object__DESC__C                             
0001e948  ti_sysbios_knl_Swi_Object__DESC__C                                   
0001e968  ti_sysbios_knl_Task_Object__DESC__C                                  
0001e988  xdc_runtime_Startup_sfxnTab__A                                       
0001e9c0  EMAC_config                                                          
0001e9f0  ti_ndk_config_Global_rawPageSize                                     
0001e9f4  ti_ndk_config_Global_rawPageCount                                    
0001e9f8  ti_ndk_config_Global_smallest                                        
0001e9fc  ti_ndk_config_Global_largest                                         
0001ea00  ti_ndk_config_Global_numFrameBuf                                     
0001ea04  ti_ndk_config_Global_sizeFrameBuf                                    
0001ea08  ti_sysbios_gates_GateHwi_Object__PARAMS__C                           
0001ea20  ti_sysbios_gates_GateMutex_Object__PARAMS__C                         
0001ea38  ti_sysbios_knl_Queue_Object__PARAMS__C                               
0001ea50  ti_sysbios_knl_Task_hooks__A                                         
0001ea68  GPIOTiva_config                                                      
0001ea7c  xdc_runtime_Startup_firstFxns__A                                     
0001ea90  emacHWAttrs                                                          
0001eaa0  xdc_runtime_Startup_sfxnRts__A                                       
0001eac0  EMACSnow_fxnTable                                                    
0001eac8  ti_sysbios_family_arm_m3_Hwi_excHookFuncs__A                         
0001ead0  ti_sysbios_knl_Idle_funcList__A                                      
0001ead8  ti_sysbios_knl_Idle_funcList__C                                      
0001eae0  ti_sysbios_knl_Task_hooks__C                                         
0001eae8  xdc_runtime_Startup_firstFxns__C                                     
0001eaf0  xdc_runtime_Startup_lastFxns__C                                      
0001eaf8  ti_catalog_arm_cortexm4_tiva_ce_Boot_A_mustNotUseEnhancedClockMode__C
0001eafc  ti_catalog_arm_cortexm4_tiva_ce_Boot_Module__diagsEnabled__C         
0001eb00  ti_catalog_arm_cortexm4_tiva_ce_Boot_Module__diagsIncluded__C        
0001eb04  ti_catalog_arm_cortexm4_tiva_ce_Boot_Module__diagsMask__C            
0001eb08  ti_sysbios_family_arm_lm4_Timer_enableFunc__C                        
0001eb0c  ti_sysbios_family_arm_lm4_Timer_numTimerDevices__C                   
0001eb10  ti_sysbios_family_arm_lm4_Timer_startupNeeded__C                     
0001eb14  ti_sysbios_family_arm_m3_Hwi_E_NMI__C                                
0001eb18  ti_sysbios_family_arm_m3_Hwi_E_alreadyDefined__C                     
0001eb1c  ti_sysbios_family_arm_m3_Hwi_E_busFault__C                           
0001eb20  ti_sysbios_family_arm_m3_Hwi_E_debugMon__C                           
0001eb24  ti_sysbios_family_arm_m3_Hwi_E_hardFault__C                          
0001eb28  ti_sysbios_family_arm_m3_Hwi_E_memFault__C                           
0001eb2c  ti_sysbios_family_arm_m3_Hwi_E_noIsr__C                              
0001eb30  ti_sysbios_family_arm_m3_Hwi_E_reserved__C                           
0001eb34  ti_sysbios_family_arm_m3_Hwi_E_svCall__C                             
0001eb38  ti_sysbios_family_arm_m3_Hwi_E_usageFault__C                         
0001eb3c  ti_sysbios_family_arm_m3_Hwi_NUM_INTERRUPTS__C                       
0001eb40  ti_sysbios_family_arm_m3_Hwi_Object__count__C                        
0001eb44  ti_sysbios_family_arm_m3_Hwi_ccr__C                                  
0001eb48  ti_sysbios_family_arm_m3_Hwi_excHandlerFunc__C                       
0001eb4c  ti_sysbios_family_arm_m3_Hwi_excHookFuncs__C                         
0001eb50  ti_sysbios_family_arm_m3_Hwi_nullIsrFunc__C                          
0001eb54  ti_sysbios_family_arm_m3_Hwi_priGroup__C                             
0001eb58  ti_sysbios_family_arm_m3_TaskSupport_stackAlignment__C               
0001eb5c  ti_sysbios_gates_GateMutex_Instance_State_sem__O                     
0001eb60  ti_sysbios_hal_Hwi_E_stackOverflow__C                                
0001eb64  ti_sysbios_heaps_HeapMem_E_memory__C                                 
0001eb68  ti_sysbios_heaps_HeapMem_Module__gateObj__C                          
0001eb6c  ti_sysbios_heaps_HeapMem_Object__count__C                            
0001eb70  ti_sysbios_heaps_HeapMem_reqAlign__C                                 
0001eb74  ti_sysbios_knl_Clock_Module_State_clockQ__O                          
0001eb78  ti_sysbios_knl_Semaphore_Instance_State_pendQ__O                     
0001eb7c  ti_sysbios_knl_Swi_Object__count__C                                  
0001eb80  ti_sysbios_knl_Task_E_deleteNotAllowed__C                            
0001eb84  ti_sysbios_knl_Task_E_spOutOfBounds__C                               
0001eb88  ti_sysbios_knl_Task_E_stackOverflow__C                               
0001eb8c  ti_sysbios_knl_Task_Module_State_inactiveQ__O                        
0001eb90  ti_sysbios_knl_Task_Module_State_terminatedQ__O                      
0001eb94  ti_sysbios_knl_Task_Object__count__C                                 
0001eb98  ti_sysbios_knl_Task_Object__heap__C                                  
0001eb9c  ti_sysbios_knl_Task_allBlockedFunc__C                                
0001eba0  ti_sysbios_knl_Task_defaultStackHeap__C                              
0001eba4  ti_sysbios_knl_Task_defaultStackSize__C                              
0001eba8  ti_sysbios_knl_Task_numConstructedTasks__C                           
0001ebac  xdc_runtime_Assert_E_assertFailed__C                                 
0001ebb0  xdc_runtime_Core_A_initializedParams__C                              
0001ebb4  xdc_runtime_Core_Module__diagsEnabled__C                             
0001ebb8  xdc_runtime_Core_Module__diagsIncluded__C                            
0001ebbc  xdc_runtime_Core_Module__diagsMask__C                                
0001ebc0  xdc_runtime_Error_E_memory__C                                        
0001ebc4  xdc_runtime_Error_Module__diagsEnabled__C                            
0001ebc8  xdc_runtime_Error_Module__diagsIncluded__C                           
0001ebcc  xdc_runtime_Error_Module__diagsMask__C                               
0001ebd0  xdc_runtime_Error_Module__loggerFxn8__C                              
0001ebd4  xdc_runtime_Error_Module__loggerObj__C                               
0001ebd8  xdc_runtime_Error_policyFxn__C                                       
0001ebdc  xdc_runtime_Error_raiseHook__C                                       
0001ebe0  xdc_runtime_IGateProvider_Interface__BASE__C                         
0001ebe4  xdc_runtime_IHeap_Interface__BASE__C                                 
0001ebe8  xdc_runtime_IModule_Interface__BASE__C                               
0001ebec  xdc_runtime_Log_L_error__C                                           
0001ebf0  xdc_runtime_Memory_defaultHeapInstance__C                            
0001ebf4  xdc_runtime_Startup_execImpl__C                                      
0001ebf8  xdc_runtime_Startup_maxPasses__C                                     
0001ebfc  xdc_runtime_Startup_sfxnRts__C                                       
0001ec00  xdc_runtime_Startup_sfxnTab__C                                       
0001ec04  xdc_runtime_SysMin_bufSize__C                                        
0001ec08  xdc_runtime_SysMin_outputFunc__C                                     
0001ec0c  xdc_runtime_System_Module__gateObj__C                                
0001ec10  xdc_runtime_System_abortFxn__C                                       
0001ec14  xdc_runtime_System_exitFxn__C                                        
0001ec18  xdc_runtime_System_extendFxn__C                                      
0001ec1c  xdc_runtime_System_maxAtexitHandlers__C                              
0001ec20  xdc_runtime_Text_charTab__C                                          
0001ec24  xdc_runtime_Text_nameEmpty__C                                        
0001ec28  xdc_runtime_Text_nameStatic__C                                       
0001ec2c  xdc_runtime_Text_nameUnknown__C                                      
0001ec30  xdc_runtime_Text_nodeTab__C                                          
0001ec34  xdc_runtime_Text_visitRopeFxn__C                                     
0001ec38  ti_sysbios_heaps_HeapMem_Module__id__C                               
0001ec3a  ti_sysbios_knl_Task_Module__id__C                                    
0001ec3c  xdc_runtime_Core_Module__id__C                                       
0001ec3e  xdc_runtime_Error_Module__loggerDefined__C                           
0001ec40  xdc_runtime_Error_maxDepth__C                                        
0001ec42  xdc_runtime_Memory_Module__id__C                                     
0001ec44  xdc_runtime_SysMin_flushAtExit__C                                    
0001ec46  xdc_runtime_Text_charCnt__C                                          
0001ec48  xdc_runtime_Text_isLoaded__C                                         
0001ec4a  xdc_runtime_Text_registryModsLastId__C                               
0001ec4c  xdc_runtime_Text_unnamedModsLastId__C                                
0001ec50  __TI_static_base__                                                   
0001f100  __TI_Handler_Table_Base                                              
0001f10c  __TI_Handler_Table_Limit                                             
0001f120  __TI_CINIT_Base                                                      
0001f138  __TI_CINIT_Limit                                                     
20000000  __start___llvm_prf_cnts                                              
20000000  __stop___llvm_prf_cnts                                               
20000000  ti_sysbios_family_arm_m3_Hwi_ramVectors                              
20000380  ti_sysbios_heaps_HeapMem_Instance_State_0_buf__A                     
20005380  ti_ndk_config_Global_pit                                             
20005428  ti_ndk_config_Global_pitBuffer                                       
20009c28  ipv6mcb                                                              
20009c80  ti_ndk_config_Global_pBufMem                                         
2000d880  ti_ndk_config_Global_pHdrMem                                         
2000dc68  ti_sysbios_knl_Task_Instance_State_0_stack__A                        
2000e268  ti_sysbios_knl_Task_Instance_State_1_stack__A                        
2000e468  ti_sysbios_family_arm_m3_Hwi_dispatchTable                           
2000e7c8  __CIOBUF_                                                            
2000e9e8  tcp6_stats                                                           
2000eaa0  tcps                                                                 
2000edbc  xdc_runtime_SysMin_Module_State_0_outbuf__A                          
2000ee3c  ips                                                                  
2000eea4  nimu_mcb                                                             
2000ef08  _ICMPIn                                                              
2000ef54  _ICMPOut                                                             
2000efe0  vlan_mcb                                                             
2000f02c  udp6_stats                                                           
2000f050  udps                                                                 
2000f074  BlockCount                                                           
2000f090  BlockMax                                                             
2000f0ac  PageCount                                                            
2000f0c8  PageMax                                                              
2000f0e4  icmp6stats                                                           
2000f0fc  stkEvent                                                             
2000f128  IPV6_ALL_NODES_ADDRESS                                               
2000f138  IPV6_ALL_ROUTER_ADDRESS                                              
2000f148  IPV6_HOST_MASK                                                       
2000f158  IPV6_LINKLOCALMASK                                                   
2000f168  IPV6_LOOPBACK_ADDRESS                                                
2000f178  IPV6_MULTICASTMASK                                                   
2000f188  IPV6_UNSPECIFIED_ADDRESS                                             
2000f1a8  raw6_stats                                                           
2000f1b8  raweths                                                              
2000f1c8  raws                                                                 
2000f1d8  PBMQ_free                                                            
2000f1e4  tpseudo                                                              
2000f1f0  upseudo                                                              
2000f1fc  emacObjects                                                          
2000f204  parmbuf                                                              
2000f234  _IGMPInDiscard                                                       
2000f238  _IGMPInQuery                                                         
2000f23c  _IGMPInQueryGroup                                                    
2000f240  _IGMPInResponse                                                      
2000f244  _IGMPOutResponse                                                     
2000f248  g_ulStatus                                                           
2000f264  raweth_pcb                                                           
2000f268  ti_sysbios_knl_Task_Instance_State_0_hookEnv__A                      
2000f26c  ti_sysbios_knl_Task_Instance_State_1_hookEnv__A                      
2000f270  HTTPStd_VER                                                          
2000f274  HTTPStd_GET                                                          
2000f278  HTTPStd_POST                                                         
2000f27c  HTTPStd_HEAD                                                         
2000f280  HTTPStd_OPTIONS                                                      
2000f284  HTTPStd_PUT                                                          
2000f288  HTTPStd_DELETE                                                       
2000f28c  HTTPStd_CONNECT                                                      
2000f290  HTTPStd_PATCH                                                        
2000f294  HTTPStd_CONTENT_TYPE_APPLET                                          
2000f298  HTTPStd_CONTENT_TYPE_AU                                              
2000f29c  HTTPStd_CONTENT_TYPE_CSS                                             
2000f2a0  HTTPStd_CONTENT_TYPE_DOC                                             
2000f2a4  HTTPStd_CONTENT_TYPE_GIF                                             
2000f2a8  HTTPStd_CONTENT_TYPE_HTML                                            
2000f2ac  HTTPStd_CONTENT_TYPE_JPG                                             
2000f2b0  HTTPStd_CONTENT_TYPE_MPEG                                            
2000f2b4  HTTPStd_CONTENT_TYPE_PDF                                             
2000f2b8  HTTPStd_CONTENT_TYPE_WAV                                             
2000f2bc  HTTPStd_CONTENT_TYPE_ZIP                                             
2000f2c0  HTTPStd_CONTENT_TYPE_PLAIN                                           
2000f2c4  HTTPStd_FIELD_NAME_ACCEPT                                            
2000f2c8  HTTPStd_FIELD_NAME_ACCEPT_CHARSET                                    
2000f2cc  HTTPStd_FIELD_NAME_ACCEPT_ENCODING                                   
2000f2d0  HTTPStd_FIELD_NAME_ACCEPT_LANGUAGE                                   
2000f2d4  HTTPStd_FIELD_NAME_ACCEPT_RANGES                                     
2000f2d8  HTTPStd_FIELD_NAME_AGE                                               
2000f2dc  HTTPStd_FIELD_NAME_ALLOW                                             
2000f2e0  HTTPStd_FIELD_NAME_AUTHORIZATION                                     
2000f2e4  HTTPStd_FIELD_NAME_CACHE_CONTROL                                     
2000f2e8  HTTPStd_FIELD_NAME_CONNECTION                                        
2000f2ec  HTTPStd_FIELD_NAME_CONTENT_ENCODING                                  
2000f2f0  HTTPStd_FIELD_NAME_CONTENT_LANGUAGE                                  
2000f2f4  HTTPStd_FIELD_NAME_CONTENT_LENGTH                                    
2000f2f8  HTTPStd_FIELD_NAME_CONTENT_LOCATION                                  
2000f2fc  HTTPStd_FIELD_NAME_CONTENT_MD5                                       
2000f300  HTTPStd_FIELD_NAME_CONTENT_RANGE                                     
2000f304  HTTPStd_FIELD_NAME_CONTENT_TYPE                                      
2000f308  HTTPStd_FIELD_NAME_COOKIE                                            
2000f30c  HTTPStd_FIELD_NAME_DATE                                              
2000f310  HTTPStd_FIELD_NAME_ETAG                                              
2000f314  HTTPStd_FIELD_NAME_EXPECT                                            
2000f318  HTTPStd_FIELD_NAME_EXPIRES                                           
2000f31c  HTTPStd_FIELD_NAME_FROM                                              
2000f320  HTTPStd_FIELD_NAME_HOST                                              
2000f324  HTTPStd_FIELD_NAME_IF_MATCH                                          
2000f328  HTTPStd_FIELD_NAME_IF_MODIFIED_SINCE                                 
2000f32c  HTTPStd_FIELD_NAME_IF_NONE_MATCH                                     
2000f330  HTTPStd_FIELD_NAME_IF_RANGE                                          
2000f334  HTTPStd_FIELD_NAME_IF_UNMODIFIED_SINCE                               
2000f338  HTTPStd_FIELD_NAME_LAST_MODIFIED                                     
2000f33c  HTTPStd_FIELD_NAME_LOCATION                                          
2000f340  HTTPStd_FIELD_NAME_MAX_FORWARDS                                      
2000f344  HTTPStd_FIELD_NAME_ORIGIN                                            
2000f348  HTTPStd_FIELD_NAME_PRAGMA                                            
2000f34c  HTTPStd_FIELD_NAME_PROXY_AUTHENTICATE                                
2000f350  HTTPStd_FIELD_NAME_PROXY_AUTHORIZATION                               
2000f354  HTTPStd_FIELD_NAME_RANGE                                             
2000f358  HTTPStd_FIELD_NAME_REFERER                                           
2000f35c  HTTPStd_FIELD_NAME_RETRY_AFTER                                       
2000f360  HTTPStd_FIELD_NAME_SERVER                                            
2000f364  HTTPStd_FIELD_NAME_TE                                                
2000f368  HTTPStd_FIELD_NAME_TRAILER                                           
2000f36c  HTTPStd_FIELD_NAME_TRANSFER_ENCODING                                 
2000f370  HTTPStd_FIELD_NAME_UPGRADE                                           
2000f374  HTTPStd_FIELD_NAME_USER_AGENT                                        
2000f378  HTTPStd_FIELD_NAME_VARY                                              
2000f37c  HTTPStd_FIELD_NAME_VIA                                               
2000f380  HTTPStd_FIELD_NAME_WWW_AUTHENTICATE                                  
2000f384  HTTPStd_FIELD_NAME_WARNING                                           
2000f388  HTTPStd_FIELD_NAME_X_FORWARDED_FOR                                   
2000f38c  _ipcfg                                                               
2000f440  ti_sysbios_knl_Task_Object__table__V                                 
2000f4d8  ti_sysbios_knl_Swi_Module_State_0_readyQ__A                          
2000f558  ti_sysbios_knl_Task_Module_State_0_readyQ__A                         
2000f678  ti_sysbios_knl_Task_Module__state__V                                 
2000f73c  ti_sysbios_family_arm_lm4_Timer_Module_State_0_device__A             
2000f77c  ti_sysbios_family_arm_lm4_Timer_Object__table__V                     
2000f7bc  ti_sysbios_gates_GateMutex_Object__table__V                          
2000f85c  ti_sysbios_family_arm_m3_Hwi_Module__state__V                        
2000f890  enablePrefetch                                                       
2000f894  phyCounter                                                           
2000f8c2  ti_sysbios_family_arm_m3_Hwi_Module_State_0_excActive__A             
2000f8c4  ti_sysbios_knl_Swi_Object__table__V                                  
2000f8f4  ti_sysbios_knl_Clock_Module__state__V                                
2000f920  pstrMsgName                                                          
2000f948  _oscfg                                                               
2000f96c  PITCount                                                             
2000f970  PITUsed                                                              
2000f974  PITHigh                                                              
2000f990  ti_sysbios_BIOS_Module__state__V                                     
2000f9b4  ti_sysbios_family_arm_lm4_Timer_Module_State_0_handles__A            
2000f9f0  ti_ndk_config_Global_Id2Size                                         
2000fa0c  ti_sysbios_knl_Swi_Module__state__V                                  
2000fa88  ti_sysbios_family_arm_m3_Hwi_Object__table__V                        
2000faa0  ti_sysbios_heaps_HeapMem_Object__table__V                            
2000faf4  gpioPinConfigs                                                       
2000fb2c  _IGMPForceVersion1                                                   
2000fb40  ti_sysbios_family_arm_lm4_Timer_Module__state__V                     
2000fb4c  xdc_runtime_SysMin_Module__state__V                                  
2000fb6e  xdc_runtime_Error_Module__state__V                                   
2000fb70  _lock                                                                
2000fb74  _unlock                                                              
2000fb78  NIMUDeviceTable                                                      
2000fb80  gpioCallbackFunctions                                                
2000fb88  ti_ndk_config_Global_HostName                                        
2000fb8c  __xdc__init__addr                                                    
2000fba0  _ICMPInErrors                                                        
2000fba4  _ICMPOutErrors                                                       
2000fba8  _IPExecuting                                                         
2000fbb8  gFragQList                                                           
2000fbc8  tcp_iss                                                              
2000fbcc  ptTimeFirst                                                          
2000fbd0  pt6TimeFirst                                                         
2000fbd4  tcp6_iss                                                             
2000fbe0  ti_sysbios_family_arm_m3_Hwi_Module__root__V                         
2000fbe8  ti_sysbios_gates_GateHwi_Module__root__V                             
2000fbf0  ti_sysbios_gates_GateMutex_Module__root__V                           
2000fbf8  ti_sysbios_heaps_HeapMem_Module__root__V                             
2000fc00  ti_sysbios_knl_Clock_Module__root__V                                 
2000fc08  ti_sysbios_knl_Queue_Module__root__V                                 
2000fc10  ti_sysbios_knl_Semaphore_Module__root__V                             
2000fc18  ti_sysbios_knl_Swi_Module__root__V                                   
2000fc20  ti_sysbios_knl_Task_Module__root__V                                  
2000fc28  xdc_runtime_Registry_Module__state__V                                
2000fc30  xdc_runtime_Startup_Module__state__V                                 
2000fc38  xdc_runtime_System_Module_State_0_atexitHandlers__A                  
2000fc40  xdc_runtime_System_Module__state__V                                  
2000fc48  macAddress                                                           
2000fc68  errno                                                                
2000fc6c  main_func_sp                                                         
2000fc78  _IPReasmPtr                                                          
2000fc84  gMLDNodeList                                                         
2000fc90  ti_sysbios_family_arm_m3_Hwi_Module_State_0_excContext__A            
2000fc94  ti_sysbios_family_arm_m3_Hwi_Module_State_0_excStack__A              
2000fc98  ti_sysbios_gates_GateHwi_Object__table__V                            
2000fc9c  ti_sysbios_knl_Task_Module_State_0_idleTask__A                       
2000fca0  xdc_runtime_Memory_Module__state__V                                  
2000fca8  __stack                                                              
200104a8  __STACK_END                                                          
e000e000  ti_sysbios_family_arm_m3_Hwi_nvic                                    
ffffffff  __TI_pprof_out_hndl                                                  
ffffffff  __TI_prof_data_size                                                  
ffffffff  __TI_prof_data_start                                                 
ffffffff  __binit__                                                            
ffffffff  __c_args__                                                           
ffffffff  binit                                                                
UNDEFED   SHT$$INIT_ARRAY$$Base                                                
UNDEFED   SHT$$INIT_ARRAY$$Limit                                               

[1254 symbols]
