******************************************************************************
                  TI ARM Linker PC v20.2.4                     
******************************************************************************
>> Linked Tue Feb  4 16:57:53 2025

OUTPUT FILE NAME:   <webserver_FS.out>
ENTRY POINT SYMBOL: "_c_int00"  address: 000149b9


MEMORY CONFIGURATION

         name            origin    length      used     unused   attr    fill
----------------------  --------  ---------  --------  --------  ----  --------
  FLASH                 00000000   00100000  0002b688  000d4978  R  X
  SRAM                  20000000   00040000  00019cc7  00026339  RW X


SEGMENT ALLOCATION MAP

run origin  load origin   length   init length attrs members
----------  ----------- ---------- ----------- ----- -------
00000000    00000000    0002b698   0002b698    r-x
  00000000    00000000    0000003c   0000003c    r-- .resetVecs
  00000040    00000040    000199da   000199da    r-x .text
  00019a20    00019a20    00011862   00011862    r-- .const
  0002b288    0002b288    00000410   00000410    r-- .cinit
20000000    20000000    00000360   00000000    rw-
  20000000    20000000    00000360   00000000    rw- .vecs
20000380    20000380    00019968   00000000    rw-
  20000380    20000380    00018737   00000000    rw- .bss
  20018ab8    20018ab8    00000a30   00000000    rw- .data
  200194e8    200194e8    00000800   00000000    rw- .stack


SECTION ALLOCATION MAP

 output                                  attributes/
section   page    origin      length       input sections
--------  ----  ----------  ----------   ----------------
.text      0    00000040    000199da     
                  00000040    00000c68     stk.aem4f : tcpin.oem4f (.text:TcpInput)
                  00000ca8    00000af0     rtsv7M4_T_le_v4SPD16_eabi.lib : _scanfi.c.obj (.text:__TI_scanfi)
                  00001798    00000a4e                                   : _printfi.c.obj (.text:__TI_printfi)
                  000021e6    00000002     hal_userled_stub.aem4f : llled.oem4f (.text:LED_TOGGLE)
                  000021e8    000008b8     stk.aem4f : tcpout.oem4f (.text:TcpOutput)
                  00002aa0    000005b8     old_main.obj (.text:tcpWorker)
                  00003058    00000460     rtsv7M4_T_le_v4SPD16_eabi.lib : strtod.c.obj (.text:strtod)
                  000034b8    00000430     sysbios.aem4f : BIOS.obj (.text:ti_sysbios_family_arm_m3_Hwi_excDumpRegs__I)
                  000038e8    00000408     stk.aem4f : ipout.oem4f (.text:IPTxPacket)
                  00003cf0    00000393     ff.obj (.text:create_name)
                  00004083    00000001     --HOLE-- [fill = 0]
                  00004084    00000384     stk.aem4f : ipin.oem4f (.text:IPRxPacket)
                  00004408    00000360     ff.obj (.text:mount_volume)
                  00004768    0000034c     ti.targets.arm.rtsarm.aem4f : System.oem4f (.text:xdc_runtime_System_doPrint__I)
                  00004ab4    00000300     sysctl.obj (.text:SysCtlClockFreqSet)
                  00004db4    000002b4     ff.obj (.text:f_open)
                  00005068    00000284     stk.aem4f : sock.oem4f (.text:SockSet)
                  000052ec    00000282     ff.obj (.text:f_write)
                  0000556e    00000002     stk.aem4f : nat.oem4f (.text:NatMsg)
                  00005570    00000270     gpio.obj (.text:GPIOPadConfigSet)
                  000057e0    00000270     rtsv7M4_T_le_v4SPD16_eabi.lib : _printfi.c.obj (.text:_pconv_a)
                  00005a50    00000260     old_main.obj (.text:sha1_transform)
                  00005cb0    0000024c     stk.aem4f : ipfrag.oem4f (.text:IPReasm)
                  00005efc    0000023c               : icmpin.oem4f (.text:ICMPInput)
                  00006138    00000238               : udp.oem4f (.text:UdpInput)
                  00006370    00000220     ff.obj (.text:f_read)
                  00006590    00000208     old_main.obj (.text:handle_websocket_handshake)
                  00006798    00000204     old_main.obj (.text:tcpHandler)
                  0000699c    00000204     Boot.aem4f : Boot_sysctl.oem4f (.text:ti_catalog_arm_cortexm4_tiva_ce_Boot_sysCtlClockFreqSetI__I)
                  00006ba0    000001f4     stk.aem4f : sock.oem4f (.text:SockRecv)
                  00006d94    00000004               : bind.oem4f (.text:BindGetIF)
                  00006d98    000001f4     sysbios.aem4f : BIOS.obj (.text:ti_sysbios_family_arm_m3_Hwi_excHandlerMax__I)
                  00006f8c    000001dc     rtsv7M4_T_le_v4SPD16_eabi.lib : strtoll.c.obj (.text:strtoll)
                  00007168    000001d0                                   : _printfi.c.obj (.text:_pconv_g)
                  00007338    000001b8     drivers_tivaware.aem4f : EMACSnow.oem4f (.text:EMACSnow_NIMUInit)
                  000074f0    000001b6     rtsv7M4_T_le_v4SPD16_eabi.lib : fd_add_t2.asm.obj (.text)
                  000076a6    00000002     os.aem4f : task.oem4f (.text:_TaskInit)
                  000076a8    000001b0     stk.aem4f : lliout.oem4f (.text:LLITxIpPacket)
                  00007858    000001ac               : lliin.oem4f (.text:LLIRxPacket)
                  00007a04    000001a2     ff.obj (.text:dir_register)
                  00007ba6    00000002     os.aem4f : task.oem4f (.text:_TaskShutdown)
                  00007ba8    0000019c              : mem.oem4f (.text:mmAlloc)
                  00007d44    00000198     stk.aem4f : igmp.oem4f (.text:IGMPInput)
                  00007edc    00000192     ff.obj (.text:create_chain)
                  0000806e    00000002     hal_ser_stub.aem4f : llserstb.oem4f (.text:_llSerialServiceCheck)
                  00008070    00000190     stk.aem4f : sock.oem4f (.text:SockNew)
                  00008200    00000190     old_main.obj (.text:sha1_final)
                  00008390    00000188     ff.obj (.text:put_fat)
                  00008518    00000178     old_main.obj (.text:send_file_web)
                  00008690    00000176     ff.obj (.text:dir_find)
                  00008806    00000002     hal_ser_stub.aem4f : llserstb.oem4f (.text:_llSerialShutdown)
                  00008808    00000174     netctrl_min_ipv4.aem4f : netctrl.oem4f (.text:NC_NetStart)
                  0000897c    00000004     stk.aem4f : bind.oem4f (.text:BindGetNext)
                  00008980    00000174     sysbios.aem4f : BIOS.obj (.text:ti_sysbios_family_arm_m3_Hwi_excBusFault__I)
                  00008af4    00000170     stk.aem4f : rtc.oem4f (.text:RTCReport)
                  00008c64    0000016a               : sb.oem4f (.text:SBRead)
                  00008dce    00000002     hal_userled_stub.aem4f : llled.oem4f (.text:_llUserLedInit)
                  00008dd0    00000168     ffunicode.obj (.text:ff_wtoupper)
                  00008f38    00000164     old_main.obj (.text:flash_init)
                  0000909c    00000004     os.aem4f : ossys.oem4f (.text:NDK_vsprintf)
                  000090a0    00000164     sysbios.aem4f : BIOS.obj (.text:ti_sysbios_family_arm_m3_Hwi_excUsageFault__I)
                  00009204    00000160     stk.aem4f : sock.oem4f (.text:SockConnect)
                  00009364    0000015c     rtsv7M4_T_le_v4SPD16_eabi.lib : strtoull.c.obj (.text:strtoull)
                  000094c0    00000158     nettool_ipv4.aem4f : dhcpmain.oem4f (.text:DHCPOpen)
                  00009618    00000150     drivers_tivaware.aem4f : GPIOTiva.oem4f (.text:GPIO_setConfig)
                  00009768    00000150     sysbios.aem4f : BIOS.obj (.text:ti_sysbios_knl_Task_Instance_finalize__E)
                  000098b8    0000014c     rtsv7M4_T_le_v4SPD16_eabi.lib : vla_alloc.c.obj (.text:__vla_alloc)
                  00009a04    00000004     stk.aem4f : node.oem4f (.text:NodeSetRt)
                  00009a08    00000148     sysbios.aem4f : BIOS.obj (.text:ti_sysbios_family_arm_m3_Hwi_excMemFault__I)
                  00009b50    00000144     stk.aem4f : bind.oem4f (.text:BindNew)
                  00009c94    00000140               : tcp.oem4f (.text:TcpTimeoutCheck)
                  00009dd4    0000013c     nettool_ipv4.aem4f : config.oem4f (.text:CfgAddEntry)
                  00009f10    0000013c     stk.aem4f : sockint.oem4f (.text:SockNotify)
                  0000a04c    0000013c               : sock.oem4f (.text:SockSend)
                  0000a188    0000013c     rtsv7M4_T_le_v4SPD16_eabi.lib : _printfi.c.obj (.text:_pconv_e)
                  0000a2c4    00000004     stk.aem4f : rawethsock_prot.oem4f (.text:RawEthSockPrAttach)
                  0000a2c8    00000138     sysbios.aem4f : BIOS.obj (.text:ti_sysbios_knl_Semaphore_pend__E)
                  0000a400    00000136     rtsv7M4_T_le_v4SPD16_eabi.lib : fd_div_t2.asm.obj (.text)
                  0000a536    00000002     hal_userled_stub.aem4f : llled.oem4f (.text:_llUserLedShutdown)
                  0000a538    00000134     stk.aem4f : icmp.oem4f (.text:ICMPGenPacket)
                  0000a66c    00000130     rtsv7M4_T_le_v4SPD16_eabi.lib : strtol.c.obj (.text:strtol)
                  0000a79c    0000012c     EK_TM4C1294XL.obj (.text:EK_TM4C1294XL_initEMAC)
                  0000a8c8    0000012c     ff.obj (.text:gen_numname)
                  0000a9f4    00000129     ff.obj (.text:check_fs)
                  0000ab1d    00000001     --HOLE-- [fill = 0]
                  0000ab1e    00000002     rtsv7M4_T_le_v4SPD16_eabi.lib : _lock.c.obj (.text:_nop)
                  0000ab20    00000128     old_main.obj (.text:main)
                  0000ac48    00000124     stk.aem4f : sockpcb.oem4f (.text:SockPcbResolve)
                  0000ad6c    00000124               : udp.oem4f (.text:UdpOutput)
                  0000ae90    00000124     rtsv7M4_T_le_v4SPD16_eabi.lib : _printfi.c.obj (.text:fcvt)
                  0000afb4    00000124     tcpEcho_pem4f.oem4f (.text:ti_ndk_config_Global_stackThread)
                  0000b0d8    0000011c     old_main.obj (.text:b64_encode)
                  0000b1f4    00000118     stk.aem4f : tcpout.oem4f (.text:TcpGenPacket)
                  0000b30c    00000118     ff.obj (.text:get_fat)
                  0000b424    00000118     ti.targets.arm.rtsarm.aem4f : Error.oem4f (.text:xdc_runtime_Error_policyDefault__E)
                  0000b53c    00000114     stk.aem4f : nimu.oem4f (.text:NIMUIoctl)
                  0000b650    00000114     rtsv7M4_T_le_v4SPD16_eabi.lib : fputs.c.obj (.text:fputs)
                  0000b764    00000110     stk.aem4f : node.oem4f (.text:NodeTreeFree)
                  0000b874    00000110               : raw.oem4f (.text:RawInput)
                  0000b984    00000110     rtsv7M4_T_le_v4SPD16_eabi.lib : s_scalbn.c.obj (.text:scalbn)
                  0000ba94    00000110                                   : strtoul.c.obj (.text:strtoul)
                  0000bba4    0000010c     stk.aem4f : rtable.oem4f (.text:RtFind)
                  0000bcb0    0000010a               : route.oem4f (.text:RtCreate)
                  0000bdba    0000010a     ff.obj (.text:dir_next)
                  0000bec4    00000108     drivers_tivaware.aem4f : EMACSnow.oem4f (.text:EMACSnow_emacStart)
                  0000bfcc    00000004     stk.aem4f : rawethsock_prot.oem4f (.text:RawEthSockPrDetach)
                  0000bfd0    00000108     sysbios.aem4f : BIOS.obj (.text:ti_sysbios_family_arm_lm4_Timer_start__E)
                  0000c0d8    00000104     os.aem4f : task.oem4f (.text:llEnter)
                  0000c1dc    00000102     nettool_ipv4.aem4f : dhcppkt.oem4f (.text:dhcpPacketProcess)
                  0000c2de    00000002     hal_ser_stub.aem4f : llserstb.oem4f (.text:llSerialService)
                  0000c2e0    00000100     stk.aem4f : igmp.oem4f (.text:IGMPSendReply)
                  0000c3e0    00000100     ti.targets.arm.rtsarm.aem4f : Core-mem.oem4f (.text:xdc_runtime_Core_createObject__I)
                  0000c4e0    000000fc     netctrl_min_ipv4.aem4f : netctrl.oem4f (.text:NetScheduler)
                  0000c5dc    000000fc     rtsv7M4_T_le_v4SPD16_eabi.lib : fd_mul_t2.asm.obj (.text)
                  0000c6d8    000000f8     stk.aem4f : pipe.oem4f (.text:PipeRecv)
                  0000c7d0    000000f8     ti.targets.arm.rtsarm.aem4f : Startup.oem4f (.text:xdc_runtime_Startup_startMods__I)
                  0000c8c8    000000f8     tcpEcho_pem4f.oem4f (.text:xdc_runtime_System_printfExtend__I)
                  0000c9c0    000000f4     os.aem4f : task.oem4f (.text:TaskGetEnv)
                  0000cab4    000000f4     sysbios.aem4f : m3_Hwi_asm.obj (.text:ti_sysbios_family_arm_m3_Hwi_dispatch__I)
                  0000cba8    000000f4                   : BIOS.obj (.text:ti_sysbios_knl_Task_Instance_init__E)
                  0000cc9c    000000f2     old_main.obj (.text:send_websocket_frame)
                  0000cd8e    00000002     rtsv7M4_T_le_v4SPD16_eabi.lib : div0.asm.obj (.text)
                  0000cd90    000000f0     stk.aem4f : lliout.oem4f (.text:LLIGenArpPacket)
                  0000ce80    000000f0               : sock.oem4f (.text:SockClose)
                  0000cf70    000000ec     sysbios.aem4f : BIOS.obj (.text:ti_sysbios_knl_Task_postInit__I)
                  0000d05c    000000e8     os.aem4f : task.oem4f (.text:TaskSetEnv)
                  0000d144    000000e8     ff.obj (.text:dir_sdi)
                  0000d22c    000000e6     user_diskio.obj (.text:user_disk_write)
                  0000d312    00000002     tcpEcho_pem4f.oem4f (.text:ti_ndk_config_Global_NetworkClose)
                  0000d314    000000e0     stk.aem4f : tcptime.oem4f (.text:TcpTimeoutRexmt)
                  0000d3f4    000000e0     old_main.obj (.text:write_file)
                  0000d4d4    000000dc     stk.aem4f : sb.oem4f (.text:SBWrite)
                  0000d5b0    000000dc     nettool_ipv4.aem4f : dhcpsock.oem4f (.text:dhcpSocketOpen)
                  0000d68c    000000dc                        : dhcpsm.oem4f (.text:dhcpState)
                  0000d768    000000dc     rtsv7M4_T_le_v4SPD16_eabi.lib : setvbuf.c.obj (.text:setvbuf)
                  0000d844    000000d8     stk.aem4f : node.oem4f (.text:NodeAdd)
                  0000d91c    000000d8               : tcpprot.oem4f (.text:TcpPrSetOption)
                  0000d9f4    000000d4     drivers_tivaware.aem4f : EMACSnow.oem4f (.text:EMACSnow_handleRx)
                  0000dac8    000000d4     stk.aem4f : sockpcb.oem4f (.text:SockPcbBind)
                  0000db9c    00000004     os.aem4f : semaphore.oem4f (.text:SemPend)
                  0000dba0    000000d4     sysbios.aem4f : BIOS.obj (.text:ti_sysbios_heaps_HeapMem_alloc__E)
                  0000dc74    000000d1     stk.aem4f : nimu.oem4f (.text:NIMUReceivePacket)
                  0000dd45    00000001     --HOLE-- [fill = 0]
                  0000dd46    000000ce     ff.obj (.text:follow_path)
                  0000de14    000000cc     stk.aem4f : icmp.oem4f (.text:ICMPSendRtAdv)
                  0000dee0    000000cc     nettool_ipv4.aem4f : dhcpbild.oem4f (.text:dhcpBuildHeader)
                  0000dfac    000000cc                        : dhcpsm.oem4f (.text:dhcpIPAdd)
                  0000e078    000000cc                        : dhcppkt.oem4f (.text:dhcpVerifyMessage)
                  0000e144    000000cc     ff.obj (.text:f_sync)
                  0000e210    000000cc     ti.targets.arm.rtsarm.aem4f : Core-smem.oem4f (.text:xdc_runtime_Core_constructObject__I)
                  0000e2dc    000000c8     stk.aem4f : rawethsock.oem4f (.text:RawEthSockNew)
                  0000e3a4    000000c8     SST26VF032B.obj (.text:ReadFlash)
                  0000e46c    000000c8     netctrl_min_ipv4.aem4f : netsrv.oem4f (.text:SPIpNet)
                  0000e534    000000c8     rtsv7M4_T_le_v4SPD16_eabi.lib : perror.c.obj (.text:perror)
                  0000e5fc    00000004     os.aem4f : semaphore.oem4f (.text:SemPost)
                  0000e600    000000c8     sysbios.aem4f : BIOS.obj (.text:ti_sysbios_knl_Task_sleep__E)
                  0000e6c8    000000c4     drivers_tivaware.aem4f : EMACSnow.oem4f (.text:EMACSnow_InitDMADescriptors)
                  0000e78c    000000c4     stk.aem4f : igmp.oem4f (.text:IGMPJoinHostGroup)
                  0000e850    000000c4     SST26VF032B.obj (.text:PageProgram)
                  0000e914    000000c4     nettool_ipv4.aem4f : dhcpsm.oem4f (.text:StateBound)
                  0000e9d8    000000c4     ff.obj (.text:cmp_lfn)
                  0000ea9c    000000c0     ff.obj (.text:put_lfn)
                  0000eb5c    000000c0     ff.obj (.text:remove_chain)
                  0000ec1c    000000bc     stk.aem4f : sockpcb.oem4f (.text:SockPcbFind)
                  0000ecd8    000000bc               : vlan.oem4f (.text:VLANDeinit)
                  0000ed94    00000004     os.aem4f : semaphore.oem4f (.text:SemReset)
                  0000ed98    000000bc     sysbios.aem4f : BIOS.obj (.text:ti_sysbios_family_arm_m3_Hwi_excDebugMon__I)
                  0000ee54    00000004     os.aem4f : task.oem4f (.text:TaskSelf)
                  0000ee58    000000bc     sysbios.aem4f : BIOS.obj (.text:ti_sysbios_family_arm_m3_Hwi_excHardFault__I)
                  0000ef14    00000004     os.aem4f : task.oem4f (.text:TaskSetPri)
                  0000ef18    000000bc     sysbios.aem4f : BIOS.obj (.text:ti_sysbios_knl_Task_exit__E)
                  0000efd4    000000b8     EK_TM4C1294XL.obj (.text:EK_TM4C1294XL_initGeneral)
                  0000f08c    000000b8     stk.aem4f : icmpin.oem4f (.text:ICMPRevSrcRoute)
                  0000f144    000000b8               : lli.oem4f (.text:_LLITimeoutCheck)
                  0000f1fc    000000b8     ffunicode.obj (.text:ff_uni2oem)
                  0000f2b4    000000b8     ff.obj (.text:sync_fs)
                  0000f36c    000000b4     stk.aem4f : tcptime.oem4f (.text:TcpTimeoutKeep)
                  0000f420    000000b4     sysbios.aem4f : BIOS.obj (.text:ti_sysbios_knl_Task_checkStacks__E)
                  0000f4d4    000000b1     rtsv7M4_T_le_v4SPD16_eabi.lib : _printfi.c.obj (.text:_ltostr)
                  0000f585    00000001     --HOLE-- [fill = 0]
                  0000f586    000000b0     stk.aem4f : rawethsock.oem4f (.text:RawEthSockSet)
                  0000f636    00000002     tcpEcho_pem4f.oem4f (.text:ti_sysbios_BIOS_nullFunc__I)
                  0000f638    000000ac     stk.aem4f : rtable.oem4f (.text:RtTimeoutCheck)
                  0000f6e4    000000ac     ffunicode.obj (.text:ff_oem2uni)
                  0000f790    000000ac     sysbios.aem4f : BIOS.obj (.text:ti_sysbios_family_arm_lm4_Timer_enableTiva__I)
                  0000f83c    000000a8     stk.aem4f : sockint.oem4f (.text:SockCreatePacket)
                  0000f8e4    000000a4     gpio.obj (.text:GPIOIntTypeSet)
                  0000f988    000000a4     sysbios.aem4f : BIOS.obj (.text:ti_sysbios_knl_Task_setPri__E)
                  0000fa2c    000000a0     stk.aem4f : ip.oem4f (.text:IPGetRoute)
                  0000facc    000000a0     SST26VF032B.obj (.text:SPI_Init)
                  0000fb6c    000000a0     auto_init.aem4f : auto_init.oem4f (.text)
                  0000fc0c    000000a0     ti.targets.arm.rtsarm.aem4f : Text.oem4f (.text:xdc_runtime_Text_putMod__E)
                  0000fcac    0000009e     stk.aem4f : nimu.oem4f (.text:NIMUAddEthernetHeader)
                  0000fd4a    0000009e     nettool_ipv4.aem4f : dhcpbild.oem4f (.text:dhcpBuildRequest)
                  0000fde8    0000009e     user_diskio.obj (.text:user_disk_ioctl)
                  0000fe86    00000002     tcpEcho_pem4f.oem4f (.text:xdc_runtime_Startup_reset__I)
                  0000fe88    0000009c     stk.aem4f : exec.oem4f (.text:ExecOpen)
                  0000ff24    0000009c     rtsv7M4_T_le_v4SPD16_eabi.lib : memcpy_t2.asm.obj (.text)
                  0000ffc0    0000009a     ti.targets.arm.rtsarm.aem4f : Text.oem4f (.text:xdc_runtime_Text_putSite__E)
                  0001005a    00000002     --HOLE-- [fill = 0]
                  0001005c    00000098     netctrl_min_ipv4.aem4f : netctrl.oem4f (.text:NC_SystemOpen)
                  000100f4    00000098                            : netsrv.oem4f (.text:ServiceScan)
                  0001018c    00000098     Boot.aem4f : Boot.oem4f (.text:ti_catalog_arm_cortexm4_tiva_ce_Boot_sysCtlClockFreqSet__E)
                  00010224    00000004     rtsv7M4_T_le_v4SPD16_eabi.lib : error.c.obj (.text:__abort_execution)
                  00010228    00000098     sysbios.aem4f : BIOS.obj (.text:ti_sysbios_knl_Task_schedule__I)
                  000102c0    00000096     ff.obj (.text:find_volume)
                  00010356    00000096     rtsv7M4_T_le_v4SPD16_eabi.lib : ull_div_t2.asm.obj (.text)
                  000103ec    00000094     nettool_ipv4.aem4f : config.oem4f (.text:CfgRemoveEntry)
                  00010480    00000094     sysbios.aem4f : BIOS.obj (.text:ti_sysbios_family_arm_m3_Hwi_Instance_init__E)
                  00010514    00000004     hal_ser_stub.aem4f : llserstb.oem4f (.text:_llSerialInit)
                  00010518    00000094     sysbios.aem4f : BIOS.obj (.text:ti_sysbios_family_arm_m3_Hwi_initNVIC__E)
                  000105ac    00000094     user_diskio.obj (.text:user_disk_read)
                  00010640    00000090     nettool_ipv4.aem4f : config.oem4f (.text:CfgExecute)
                  000106d0    00000090     stk.aem4f : igmp.oem4f (.text:IGMPMsg)
                  00010760    00000090     sysctl.obj (.text:_SysCtlFrequencyGet)
                  000107f0    00000090     os.aem4f : mem.oem4f (.text:mmBulkAlloc)
                  00010880    00000090     sysbios.aem4f : BIOS.obj (.text:ti_sysbios_knl_Task_Module_startup__E)
                  00010910    00000090                   : BIOS.obj (.text:ti_sysbios_knl_Task_startCore__E)
                  000109a0    0000008c     drivers_tivaware.aem4f : GPIOTiva.oem4f (.text:GPIO_init)
                  00010a2c    0000008c     stk.aem4f : ip.oem4f (.text:IPMsg)
                  00010ab8    0000008c     sysctl.obj (.text:SysCtlPeripheralReset)
                  00010b44    0000008c     os.aem4f : mem.oem4f (.text:_mmInit)
                  00010bd0    0000008c     rtsv7M4_T_le_v4SPD16_eabi.lib : fputc.c.obj (.text:fputc)
                  00010c5c    0000008c     os.aem4f : mem.oem4f (.text:mmInitPage)
                  00010ce8    0000008c     sysbios.aem4f : m3_TaskSupport_asm.obj (.text:ti_sysbios_family_arm_m3_TaskSupport_buildTaskStack)
                  00010d74    0000008a     netctrl_min_ipv4.aem4f : netsrv.oem4f (.text:SPRoute)
                  00010dfe    0000008a     ff.obj (.text:dir_alloc)
                  00010e88    00000088     netctrl_min_ipv4.aem4f : netsrv.oem4f (.text:ServiceSpawn)
                  00010f10    00000088     stk.aem4f : sockpcb.oem4f (.text:SockPcbCtlError)
                  00010f98    00000086     nettool_ipv4.aem4f : dhcpsm.oem4f (.text:StateRequesting)
                  0001101e    00000086     rtsv7M4_T_le_v4SPD16_eabi.lib : fd_cmp_t2.asm.obj (.text:__aeabi_cdcmple)
                  000110a4    00000086                                   : fd_cmp_t2.asm.obj (.text:__aeabi_cdrcmple)
                  0001112a    00000002     --HOLE-- [fill = 0]
                  0001112c    00000084     nettool_ipv4.aem4f : config.oem4f (.text:CfgGetEntry)
                  000111b0    00000084     drivers_tivaware.aem4f : EMACSnow.oem4f (.text:EMACSnow_processPhyInterrupt)
                  00011234    00000084     stk.aem4f : tcpprot.oem4f (.text:TcpPrAttach)
                  000112b8    00000084     ff.obj (.text:f_mount)
                  0001133c    00000084     os.aem4f : mem.oem4f (.text:mmBulkFree)
                  000113c0    00000084              : mem.oem4f (.text:mmFree)
                  00011444    00000084     ff.obj (.text:tchar2uni)
                  000114c8    00000084     sysbios.aem4f : BIOS.obj (.text:ti_sysbios_family_arm_m3_Hwi_postInit__I)
                  0001154c    00000082     nettool_ipv4.aem4f : dhcpsm.oem4f (.text:StateRenewRebind)
                  000115ce    00000002     --HOLE-- [fill = 0]
                  000115d0    00000080     drivers_tivaware.aem4f : EMACSnow.oem4f (.text:EMACSnow_emacStop)
                  00011650    00000080                            : EMACSnow.oem4f (.text:EMACSnow_processPendingTx)
                  000116d0    00000080     stk.aem4f : lli.oem4f (.text:LLINew)
                  00011750    00000080     netctrl_min_ipv4.aem4f : netsrv.oem4f (.text:NS_BootTask)
                  000117d0    00000080     stk.aem4f : pbm.oem4f (.text:PBM_alloc)
                  00011850    00000080               : raw.oem4f (.text:RawOutput)
                  000118d0    00000080     ff.obj (.text:dir_clear)
                  00011950    0000007f     tcpEcho_pem4f.oem4f (.text:ti_ndk_config_Global_NetworkIPAddr)
                  000119cf    00000001     --HOLE-- [fill = 0]
                  000119d0    0000007e     stk.aem4f : fileuser.oem4f (.text:fdClose)
                  00011a4e    0000007e     ff.obj (.text:get_ldnumber)
                  00011acc    0000007c     nettool_ipv4.aem4f : config.oem4f (.text:CfgGetNextEntry)
                  00011b48    0000007c     drivers_tivaware.aem4f : EMACSnow.oem4f (.text:EMACSnow_hwiIntFxn)
                  00011bc4    0000007c     stk.aem4f : igmp.oem4f (.text:IGMPDoMCast)
                  00011c40    0000007c               : igmp.oem4f (.text:IGMPJoin)
                  00011cbc    0000007c               : socket.oem4f (.text:NDK_setsockopt)
                  00011d38    0000007c               : nimu.oem4f (.text:NIMURegister)
                  00011db4    0000007c               : pbm.oem4f (.text:PBM_free)
                  00011e30    0000007c     SST26VF032B.obj (.text:SectorErase)
                  00011eac    0000007c     ff.obj (.text:dbc_2nd)
                  00011f28    0000007c     sysbios.aem4f : BIOS.obj (.text:ti_sysbios_heaps_HeapMem_free__E)
                  00011fa4    0000007a     ssi.obj (.text:SSIConfigSetExpClk)
                  0001201e    0000007a     stk.aem4f : sock.oem4f (.text:SockAccept)
                  00012098    0000007a     rtsv7M4_T_le_v4SPD16_eabi.lib : memset_t2.asm.obj (.text)
                  00012112    00000002     --HOLE-- [fill = 0]
                  00012114    00000078     driverlib.lib : emac.obj (.text:EMACInit)
                  0001218c    00000078     stk.aem4f : socket.oem4f (.text:NDK_sendto)
                  00012204    00000078               : tcptime.oem4f (.text:TcpXmitTimer)
                  0001227c    00000078     rtsv7M4_T_le_v4SPD16_eabi.lib : vla_alloc.c.obj (.text:_ZN33_INTERNAL_11_vla_alloc_c_be8bd49b21free_dead_allocationsEPv)
                  000122f4    00000078     stk.aem4f : fileuser.oem4f (.text:fdOpenSession)
                  0001236c    00000078     os.aem4f : task.oem4f (.text:llExit)
                  000123e4    00000078     old_main.obj (.text:sha1_init)
                  0001245c    00000076     stk.aem4f : pipe.oem4f (.text:PipeSend)
                  000124d2    00000002     --HOLE-- [fill = 0]
                  000124d4    00000075               : tcptime.oem4f (.text:TcpTimeoutSackRexmt)
                  00012549    00000003     --HOLE-- [fill = 0]
                  0001254c    00000074               : igmp.oem4f (.text:IGMPLeaveHostGroup)
                  000125c0    00000074               : nimu.oem4f (.text:NIMUShutdown)
                  00012634    00000074               : raweth.oem4f (.text:RawEthRxPacket)
                  000126a8    00000074     SST26VF032B.obj (.text:ReadJEDECID)
                  0001271c    00000074     stk.aem4f : sockpcb.oem4f (.text:SockPcbConnect)
                  00012790    00000074     rtsv7M4_T_le_v4SPD16_eabi.lib : fclose.c.obj (.text:__TI_closefile)
                  00012804    00000074     tcpEchoHooks.obj (.text:netOpenHook)
                  00012878    00000072     os.aem4f : semaphore.oem4f (.text:SemCreateBinary)
                  000128ea    00000070     stk.aem4f : socket.oem4f (.text:NDK_accept)
                  0001295a    00000070               : socket.oem4f (.text:NDK_send)
                  000129ca    00000002     --HOLE-- [fill = 0]
                  000129cc    00000070               : rtable.oem4f (.text:RtFlush)
                  00012a3c    00000070     netctrl_min_ipv4.aem4f : netsrv.oem4f (.text:SPConfig)
                  00012aac    00000070     stk.aem4f : sock.oem4f (.text:SockShutdown)
                  00012b1c    00000070     rtsv7M4_T_le_v4SPD16_eabi.lib : vla_alloc.c.obj (.text:__vla_dealloc)
                  00012b8c    00000070     nettool_ipv4.aem4f : dhcptags.oem4f (.text:dhcpDecodeType)
                  00012bfc    00000004     rtsv7M4_T_le_v4SPD16_eabi.lib : exit.c.obj (.text:abort:abort)
                  00012c00    00000070     sysbios.aem4f : BIOS.obj (.text:ti_sysbios_knl_Clock_workFunc__E)
                  00012c70    0000006e     stk.aem4f : socket.oem4f (.text:NDK_recv)
                  00012cde    00000002     --HOLE-- [fill = 0]
                  00012ce0    0000006e               : rtable.oem4f (.text:RtWalkNext)
                  00012d4e    0000006e               : sockpcb.oem4f (.text:SockPcbFindRaw)
                  00012dbc    0000006e     rtsv7M4_T_le_v4SPD16_eabi.lib : _printfi.c.obj (.text:_mcpy)
                  00012e2a    0000006e                                   : fd_tos_t2.asm.obj (.text)
                  00012e98    0000006e     old_main.obj (.text:sha1_update)
                  00012f06    00000002     --HOLE-- [fill = 0]
                  00012f08    0000006d     stk.aem4f : node.oem4f (.text:NodeNew)
                  00012f75    00000003     --HOLE-- [fill = 0]
                  00012f78    0000006d     ti.targets.arm.rtsarm.aem4f : System.oem4f (.text:xdc_runtime_System_formatNum__I)
                  00012fe5    00000003     --HOLE-- [fill = 0]
                  00012fe8    0000006c     os.aem4f : ossys.oem4f (.text:DbgPrintf)
                  00013054    0000006c     rtsv7M4_T_le_v4SPD16_eabi.lib : hostrename.c.obj (.text:HOSTrename)
                  000130c0    0000006c     stk.aem4f : node.oem4f (.text:NodeTreeNew)
                  0001312c    0000006c               : raweth.oem4f (.text:RawEthTxPacket)
                  00013198    0000006c               : udp.oem4f (.text:UdpChecksum)
                  00013204    0000006c     tcpEcho_pem4f.oem4f (.text:ti_ndk_config_ip_init)
                  00013270    0000006c     sysbios.aem4f : BIOS.obj (.text:ti_sysbios_knl_Swi_restoreHwi__E)
                  000132dc    0000006c     ti.targets.arm.rtsarm.aem4f : Error.oem4f (.text:xdc_runtime_Error_print__E)
                  00013348    0000006c                                 : Memory.oem4f (.text:xdc_runtime_Memory_alloc__E)
                  000133b4    0000006a     stk.aem4f : tcpprot.oem4f (.text:TcpPrInherit)
                  0001341e    0000006a     ff.obj (.text:sync_window)
                  00013488    00000068     gpio.obj (.text:GPIOPinConfigure)
                  000134f0    00000068     rtsv7M4_T_le_v4SPD16_eabi.lib : hostlseek.c.obj (.text:HOSTlseek)
                  00013558    00000068     stk.aem4f : socket.oem4f (.text:NDK_socket)
                  000135c0    00000068               : pbm.oem4f (.text:PBM_open)
                  00013628    00000068               : sock.oem4f (.text:SockListen)
                  00013690    00000068               : rtable.oem4f (.text:_RtNodeInsert)
                  000136f8    00000068     rtsv7M4_T_le_v4SPD16_eabi.lib : sscanf.c.obj (.text:_chkmbc)
                  00013760    00000068                                   : copy_decompress_lzss.c.obj (.text:decompress:lzss:__TI_decompress_lzss)
                  000137c8    00000066     ti.targets.arm.rtsarm.aem4f : Core-mem.oem4f (.text:xdc_runtime_Core_deleteObject__I)
                  0001382e    00000002     --HOLE-- [fill = 0]
                  00013830    00000064     nettool_ipv4.aem4f : config.oem4f (.text:CfgFree)
                  00013894    00000064     drivers_tivaware.aem4f : GPIOTiva.oem4f (.text:GPIO_hwiIntFxn)
                  000138f8    00000064     stk.aem4f : pbm.oem4f (.text:PBMQ_enq)
                  0001395c    00000064               : sockint.oem4f (.text:SockSpawnAbort)
                  000139c0    00000064     rtsv7M4_T_le_v4SPD16_eabi.lib : s_frexp.c.obj (.text:frexp)
                  00013a24    00000064                                   : fseek.c.obj (.text:fseek)
                  00013a88    00000064     hal_timer_bios.aem4f : lltimer.oem4f (.text:llTimerTick)
                  00013aec    00000004     stk.aem4f : listlib.oem4f (.text:list_get_head)
                  00013af0    00000064     sysbios.aem4f : BIOS.obj (.text:ti_sysbios_family_arm_lm4_Timer_Module_startup__E)
                  00013b54    00000064     tcpEcho_pem4f.oem4f (.text:ti_sysbios_family_arm_m3_Hwi_create)
                  00013bb8    00000064     sysbios.aem4f : BIOS.obj (.text:ti_sysbios_family_arm_m3_Hwi_dispatchC__I)
                  00013c1c    00000004     stk.aem4f : listlib.oem4f (.text:list_get_next)
                  00013c20    00000064     sysbios.aem4f : BIOS.obj (.text:ti_sysbios_knl_Semaphore_post__E)
                  00013c84    00000064     stk.aem4f : lliin.oem4f (.text:updateRtTable)
                  00013ce8    00000062               : ipin.oem4f (.text:IPRouteIP)
                  00013d4a    00000002     --HOLE-- [fill = 0]
                  00013d4c    00000062               : sb.oem4f (.text:SBNew)
                  00013dae    00000062     rtsv7M4_T_le_v4SPD16_eabi.lib : _io_perm.c.obj (.text:__TI_wrt_ok)
                  00013e10    00000060     nettool_ipv4.aem4f : config.oem4f (.text:CfgGetEntryCnt)
                  00013e70    00000060     stk.aem4f : file.oem4f (.text:FdWaitEvent)
                  00013ed0    00000060     rtsv7M4_T_le_v4SPD16_eabi.lib : hostopen.c.obj (.text:HOSTopen)
                  00013f30    00000060     stk.aem4f : nimu.oem4f (.text:NIMUUnregister)
                  00013f90    00000060               : node.oem4f (.text:NodeFind)
                  00013ff0    00000060               : rtc.oem4f (.text:RTCMsg)
                  00014050    00000060               : tcp.oem4f (.text:TcpChecksum)
                  000140b0    00000060     nettool_ipv4.aem4f : dhcptags.oem4f (.text:dhcpBuildOptions)
                  00014110    00000060     tcpEcho_pem4f.oem4f (.text:ti_ndk_config_Global_serviceReport)
                  00014170    0000005e     stk.aem4f : route.oem4f (.text:RtRemove)
                  000141ce    0000005e     nettool_ipv4.aem4f : dhcpsm.oem4f (.text:StateSelecting)
                  0001422c    0000005e     stk.aem4f : vlan.oem4f (.text:VLANReceivePacket)
                  0001428a    00000002     --HOLE-- [fill = 0]
                  0001428c    0000005c     nettool_ipv4.aem4f : config.oem4f (.text:CfgSetExecuteOrder)
                  000142e8    0000005c     gpio.obj (.text:GPIODirModeSet)
                  00014344    0000005c     stk.aem4f : nimu.oem4f (.text:NIMUIoctlSpecialCmd)
                  000143a0    0000005c     netctrl_min_ipv4.aem4f : netsrv.oem4f (.text:SPService)
                  000143fc    0000005c     rtsv7M4_T_le_v4SPD16_eabi.lib : close.c.obj (.text:close)
                  00014458    0000005c     old_main.obj (.text:mount)
                  000144b4    0000005c     old_main.obj (.text:send_all)
                  00014510    0000005c     tcpEcho_pem4f.oem4f (.text:ti_sysbios_knl_Swi_create)
                  0001456c    00000004     tcpEcho_pem4f.oem4f (.text:ti_ndk_config_Global_NetworkOpen)
                  00014570    0000005c     sysbios.aem4f : BIOS.obj (.text:ti_sysbios_knl_Swi_run__I)
                  000145cc    00000004     tcpEcho_pem4f.oem4f (.text:ti_sysbios_BIOS_RtsGateProxy_enter__E)
                  000145d0    0000005c     sysbios.aem4f : BIOS.obj (.text:ti_sysbios_knl_Swi_schedule__I)
                  0001462c    0000005c     tcpEcho_pem4f.oem4f (.text:ti_sysbios_knl_Task_create)
                  00014688    0000005c     sysbios.aem4f : BIOS.obj (.text:ti_sysbios_knl_Task_unblockI__E)
                  000146e4    0000005c     old_main.obj (.text:unmount)
                  00014740    0000005b     ti.targets.arm.rtsarm.aem4f : Text.oem4f (.text:xdc_runtime_Text_putLab__E)
                  0001479b    00000001     --HOLE-- [fill = 0]
                  0001479c    0000005a     stk.aem4f : route.oem4f (.text:RtRedirect)
                  000147f6    0000005a               : tcpprot.oem4f (.text:TcpValidateMetrics)
                  00014850    0000005a     nettool_ipv4.aem4f : dhcpbild.oem4f (.text:dhcpBuildDecline)
                  000148aa    0000005a     os.aem4f : mem.oem4f (.text:mmCopy)
                  00014904    0000005a     tcpEcho_pem4f.oem4f (.text:ti_ndk_config_tcp_init)
                  0001495e    00000002     --HOLE-- [fill = 0]
                  00014960    00000058     stk.aem4f : bind.oem4f (.text:BindFree)
                  000149b8    00000058     boot.aem4f : boot.oem4f (.text)
                  00014a10    00000058     driverlib.lib : emac.obj (.text:EMACPHYConfigSet)
                  00014a68    00000058     rtsv7M4_T_le_v4SPD16_eabi.lib : hostread.c.obj (.text:HOSTread)
                  00014ac0    00000058                                   : hostwrite.c.obj (.text:HOSTwrite)
                  00014b18    00000058     stk.aem4f : igmp.oem4f (.text:IGMPTimer)
                  00014b70    00000058     os.aem4f : semaphore.oem4f (.text:SemCreate)
                  00014bc8    00000058     ff.obj (.text:dbc_1st)
                  00014c20    00000058     sysbios.aem4f : m3_Hwi_asm_switch.obj (.text:ti_sysbios_family_arm_m3_Hwi_initStacks__E)
                  00014c78    00000058     user_diskio.obj (.text:user_disk_status)
                  00014cd0    00000058     ff.obj (.text:validate)
                  00014d28    00000056     rtsv7M4_T_le_v4SPD16_eabi.lib : _printfi.c.obj (.text:_pconv_f)
                  00014d7e    00000002     --HOLE-- [fill = 0]
                  00014d80    00000054     nettool_ipv4.aem4f : config.oem4f (.text:CfgEntryDeRef)
                  00014dd4    00000054     stk.aem4f : igmp.oem4f (.text:IGMPLeave)
                  00014e28    00000054               : rawethsock_pcb.oem4f (.text:RawEthSockPcbAttach)
                  00014e7c    00000054               : sockpcb.oem4f (.text:SockCleanPcb)
                  00014ed0    00000054               : tcptime.oem4f (.text:TcpTimeoutPersist)
                  00014f24    00000054     rtsv7M4_T_le_v4SPD16_eabi.lib : _ltoa.c.obj (.text:__TI_ltoa)
                  00014f78    00000054     sysbios.aem4f : BIOS.obj (.text:ti_sysbios_family_arm_lm4_Timer_initDevice__I)
                  00014fcc    00000004     tcpEcho_pem4f.oem4f (.text:ti_sysbios_BIOS_RtsGateProxy_leave__E)
                  00014fd0    00000054     sysbios.aem4f : BIOS.obj (.text:ti_sysbios_knl_Swi_Instance_init__E)
                  00015024    00000054     ti.targets.arm.rtsarm.aem4f : Assert.oem4f (.text:xdc_runtime_Assert_raise__I)
                  00015078    00000052     stk.aem4f : tcpprot.oem4f (.text:TcpPrDetach)
                  000150ca    00000052     rtsv7M4_T_le_v4SPD16_eabi.lib : _printfi.c.obj (.text:_ecpy)
                  0001511c    00000050     drivers_tivaware.aem4f : GPIOTiva.oem4f (.text:GPIO_setCallback)
                  0001516c    00000050     stk.aem4f : socket.oem4f (.text:NDK_bind)
                  000151bc    00000050               : route.oem4f (.text:RtNew)
                  0001520c    00000050     Boot.aem4f : Boot_sysctl.oem4f (.text:_SysCtlFrequencyGet)
                  0001525c    00000050     ff.obj (.text:move_window)
                  000152ac    00000004     sysbios.aem4f : BIOS.obj (.text:ti_sysbios_family_arm_lm4_Timer_masterEnable__I)
                  000152b0    00000050                   : BIOS.obj (.text:ti_sysbios_family_arm_m3_Hwi_Module_startup__E)
                  00015300    00000050                   : BIOS.obj (.text:ti_sysbios_knl_Clock_Instance_init__E)
                  00015350    00000050     ti.targets.arm.rtsarm.aem4f : Startup.oem4f (.text:xdc_runtime_Startup_exec__E)
                  000153a0    00000050                                 : Text.oem4f (.text:xdc_runtime_Text_visitRope2__I)
                  000153f0    0000004e     stk.aem4f : node.oem4f (.text:NodeDeRef)
                  0001543e    0000004e     nettool_ipv4.aem4f : config.oem4f (.text:_CfgEntryScan)
                  0001548c    0000004e     ff.obj (.text:st_dword)
                  000154da    00000002     --HOLE-- [fill = 0]
                  000154dc    0000004c     nettool_ipv4.aem4f : ipaddr.oem4f (.text:NtAddNetwork)
                  00015528    0000004c     stk.aem4f : sockint.oem4f (.text:SockValidateRoute)
                  00015574    0000004c     rtsv7M4_T_le_v4SPD16_eabi.lib : fflush.c.obj (.text:__TI_doflush)
                  000155c0    0000004c                                   : atoi.c.obj (.text:atoi)
                  0001560c    0000004c                                   : cpy_tbl.c.obj (.text:copy_in)
                  00015658    0000004c                                   : snprintf.c.obj (.text:snprintf)
                  000156a4    00000004     tcpEcho_pem4f.oem4f (.text:ti_sysbios_family_arm_m3_Hwi_delete)
                  000156a8    0000004c     sysbios.aem4f : BIOS.obj (.text:ti_sysbios_heaps_HeapMem_getStats__E)
                  000156f4    00000004     tcpEcho_pem4f.oem4f (.text:ti_sysbios_family_arm_m3_TaskSupport_Module__startupDone__S)
                  000156f8    0000004c     sysbios.aem4f : BIOS.obj (.text:ti_sysbios_knl_Swi_runLoop__I)
                  00015744    00000004     tcpEcho_pem4f.oem4f (.text:ti_sysbios_heaps_HeapMem_Module_GateProxy_enter__E)
                  00015748    0000004c     sysbios.aem4f : BIOS.obj (.text:ti_sysbios_knl_Task_allBlockedFunction__I)
                  00015794    0000004b     old_main.obj (.text:send_chunk)
                  000157df    00000001     --HOLE-- [fill = 0]
                  000157e0    0000004a     netctrl_min_ipv4.aem4f : netsrv.oem4f (.text:ServiceKill)
                  0001582a    0000004a     stk.aem4f : sock.oem4f (.text:SockDisconnect)
                  00015874    0000004a               : timer.oem4f (.text:TimerNew)
                  000158be    00000048     nettool_ipv4.aem4f : config.oem4f (.text:CfgNew)
                  00015906    00000002     --HOLE-- [fill = 0]
                  00015908    00000048     stk.aem4f : lli.oem4f (.text:LLIMsg)
                  00015950    00000048               : node.oem4f (.text:NodeWalk)
                  00015998    00000048               : rawethsock_pcb.oem4f (.text:RawEthSockPcbDetach)
                  000159e0    00000048               : sockpcb.oem4f (.text:SockPcbResolveChain)
                  00015a28    00000048               : tcpprot.oem4f (.text:TcpDrop)
                  00015a70    00000048               : lli.oem4f (.text:_LLIExpListInsert)
                  00015ab8    00000048               : rtable.oem4f (.text:_RtExpListInsert)
                  00015b00    00000048     rtsv7M4_T_le_v4SPD16_eabi.lib : exit.c.obj (.text:exit)
                  00015b48    00000048     stk.aem4f : file.oem4f (.text:fdint_lockfd)
                  00015b90    00000048     rtsv7M4_T_le_v4SPD16_eabi.lib : fd_toi_t2.asm.obj (.text)
                  00015bd8    00000048     sysbios.aem4f : BIOS.obj (.text:ti_sysbios_family_arm_lm4_Timer_enableTimers__I)
                  00015c20    00000048                   : BIOS.obj (.text:ti_sysbios_family_arm_m3_Hwi_disableInterrupt__E)
                  00015c68    00000048                   : BIOS.obj (.text:ti_sysbios_family_arm_m3_Hwi_enableInterrupt__E)
                  00015cb0    00000048                   : BIOS.obj (.text:ti_sysbios_family_arm_m3_Hwi_excReserved__I)
                  00015cf8    00000048                   : BIOS.obj (.text:ti_sysbios_knl_Task_deleteTerminatedTasksFunc__I)
                  00015d40    00000046     nettool_ipv4.aem4f : ipaddr.oem4f (.text:NtIfIdx2Ip)
                  00015d86    00000046     stk.aem4f : rawethsock.oem4f (.text:RawEthSockSend)
                  00015dcc    00000046               : tcpprot.oem4f (.text:TcpPrCtlError)
                  00015e12    00000046     os.aem4f : mem.oem4f (.text:mmZeroInit)
                  00015e58    00000046     ti.targets.arm.rtsarm.aem4f : Core-params.oem4f (.text:xdc_runtime_Core_assignParams__I)
                  00015e9e    00000002     --HOLE-- [fill = 0]
                  00015ea0    00000044     drivers_tivaware.aem4f : EMACSnow.oem4f (.text:EMACSnow_processTransmitted)
                  00015ee4    00000044     rtsv7M4_T_le_v4SPD16_eabi.lib : hostclose.c.obj (.text:HOSTclose)
                  00015f28    00000044                                   : hostunlink.c.obj (.text:HOSTunlink)
                  00015f6c    00000044     stk.aem4f : icmp.oem4f (.text:ICMPChecksum)
                  00015fb0    00000044               : ipfrag.oem4f (.text:IPReasmFree)
                  00015ff4    00000044               : lli.oem4f (.text:LLIGetValidTime)
                  00016038    00000044               : rtable.oem4f (.text:RouteMsg)
                  0001607c    00000044               : rtable.oem4f (.text:RtWalkEnd)
                  000160c0    00000044               : sockpcb.oem4f (.text:SockPcbDetach)
                  00016104    00000044     sysctl.obj (.text:SysCtlPeripheralReady)
                  00016148    00000044     stk.aem4f : timer.oem4f (.text:TimerListInsert)
                  0001618c    00000044     sysctl.obj (.text:_SysCtlMemTimingGet)
                  000161d0    00000044     rtsv7M4_T_le_v4SPD16_eabi.lib : getdevice.c.obj (.text:getdevice)
                  00016214    00000044     hal_timer_bios.aem4f : lltimer.oem4f (.text:llTimerGetTime)
                  00016258    00000044     sysbios.aem4f : BIOS.obj (.text:ti_sysbios_family_arm_lm4_Timer_isrStub__E)
                  0001629c    00000004     tcpEcho_pem4f.oem4f (.text:ti_sysbios_heaps_HeapMem_Module_GateProxy_leave__E)
                  000162a0    00000044     sysbios.aem4f : BIOS.obj (.text:ti_sysbios_family_arm_m3_Hwi_getStackInfo__E)
                  000162e4    00000004     tcpEcho_pem4f.oem4f (.text:ti_sysbios_knl_Clock_TimerProxy_getMaxTicks__E)
                  000162e8    00000044     sysbios.aem4f : BIOS.obj (.text:ti_sysbios_knl_Swi_post__E)
                  0001632c    00000044     ti.targets.arm.rtsarm.aem4f : Error.oem4f (.text:xdc_runtime_Error_setX__E)
                  00016370    00000044                                 : SysMin.oem4f (.text:xdc_runtime_SysMin_flush__E)
                  000163b4    00000044                                 : Text.oem4f (.text:xdc_runtime_Text_xprintf__I)
                  000163f8    00000042     stk.aem4f : socket.oem4f (.text:NDK_listen)
                  0001643a    00000042               : tcpprot.oem4f (.text:TcpPrSendOOB)
                  0001647c    00000042     old_main.obj (.text:b64_encoded_size)
                  000164be    00000042     stk.aem4f : fileuser.oem4f (.text:fdCloseSession)
                  00016500    00000040               : lliin.oem4f (.text:LLIValidateRoute)
                  00016540    00000040               : pbm.oem4f (.text:PBM_copy)
                  00016580    00000040     SST26VF032B.obj (.text:ReadConfig)
                  000165c0    00000040     SST26VF032B.obj (.text:ReadStatus)
                  00016600    00000040     stk.aem4f : sockpcb.oem4f (.text:SockPcbRtChange)
                  00016640    00000040     sysctl.obj (.text:SysCtlPeripheralEnable)
                  00016680    00000040     stk.aem4f : tcpprot.oem4f (.text:TcpPrSend)
                  000166c0    00000040     old_main.obj (.text:led_blink)
                  00016700    00000040     rtsv7M4_T_le_v4SPD16_eabi.lib : u_divt2.asm.obj (.text)
                  00016740    00000040     sysbios.aem4f : BIOS.obj (.text:ti_sysbios_family_arm_lm4_Timer_startup__E)
                  00016780    00000040                   : BIOS.obj (.text:ti_sysbios_heaps_HeapMem_Instance_init__E)
                  000167c0    0000003e     nettool_ipv4.aem4f : dhcpmain.oem4f (.text:DHCPClose)
                  000167fe    00000002     --HOLE-- [fill = 0]
                  00016800    0000003e     stk.aem4f : nimu.oem4f (.text:NIMUAllocateName)
                  0001683e    0000003e     os.aem4f : task.oem4f (.text:TaskCreate)
                  0001687c    0000003e     stk.aem4f : tcpprot.oem4f (.text:TcpPrDisconnect)
                  000168ba    0000003e     rtsv7M4_T_le_v4SPD16_eabi.lib : _printfi.c.obj (.text:_fcpy)
                  000168f8    0000003e     stk.aem4f : file.oem4f (.text:fdint_unlockfd)
                  00016936    0000003e     tcpEcho_pem4f.oem4f (.text:realloc)
                  00016974    0000003c     nettool_ipv4.aem4f : config.oem4f (.text:CfgEntryGetData)
                  000169b0    0000003c     driverlib.lib : emac.obj (.text:EMACIntDisable)
                  000169ec    0000003c     stk.aem4f : node.oem4f (.text:NodeUpdatePL)
                  00016a28    0000003c               : rtable.oem4f (.text:RtWalkBegin)
                  00016a64    0000003c               : tcpprot.oem4f (.text:TcpPrConnect)
                  00016aa0    0000003c               : tcptime.oem4f (.text:TcpSetPersist)
                  00016adc    0000003c               : rtc.oem4f (.text:_RTCSendRtAdv)
                  00016b18    0000003c               : rtable.oem4f (.text:_RtNodeRemove)
                  00016b54    0000003c     hal_timer_bios.aem4f : lltimer.oem4f (.text:_llTimerInit)
                  00016b90    0000003c     ff.obj (.text:sum_sfn)
                  00016bcc    00000004     tcpEcho_pem4f.oem4f (.text:ti_sysbios_knl_Queue_destruct)
                  00016bd0    0000003c     sysbios.aem4f : BIOS.obj (.text:ti_sysbios_family_arm_m3_Hwi_excSvCall__I)
                  00016c0c    00000004     tcpEcho_pem4f.oem4f (.text:ti_sysbios_knl_Semaphore_delete)
                  00016c10    0000003c     sysbios.aem4f : BIOS.obj (.text:ti_sysbios_heaps_HeapMem_init__I)
                  00016c4c    00000004     tcpEcho_pem4f.oem4f (.text:ti_sysbios_knl_Semaphore_destruct)
                  00016c50    0000003c     sysbios.aem4f : BIOS.obj (.text:ti_sysbios_knl_Swi_restore__E)
                  00016c8c    0000003a     driverlib.lib : emac.obj (.text:EMACIntEnable)
                  00016cc6    00000002     --HOLE-- [fill = 0]
                  00016cc8    00000038                   : emac.obj (.text:EMACConfigGet)
                  00016d00    00000038     stk.aem4f : ipfrag.oem4f (.text:IPReasmTimeout)
                  00016d38    00000038               : node.oem4f (.text:NodeGetRt)
                  00016d70    00000038               : tcpprot.oem4f (.text:TcpClose)
                  00016da8    00000038               : timer.oem4f (.text:TimerHSTick)
                  00016de0    00000038     SST26VF032B.obj (.text:WriteEnable)
                  00016e18    00000038     rtsv7M4_T_le_v4SPD16_eabi.lib : trgmsg.c.obj (.text:__TI_writemsg)
                  00016e50    00000038     nettool_ipv4.aem4f : dhcpbild.oem4f (.text:dhcpBuildDiscover)
                  00016e88    00000038                        : dhcptags.oem4f (.text:dhcpOptionsClear)
                  00016ec0    00000038     stk.aem4f : file.oem4f (.text:fdint_waitevent)
                  00016ef8    00000038     rtsv7M4_T_le_v4SPD16_eabi.lib : sscanf.c.obj (.text:sscanf)
                  00016f30    00000038     sysbios.aem4f : BIOS.obj (.text:ti_sysbios_family_arm_m3_Hwi_excNoIsr__I)
                  00016f68    00000038     tcpEcho_pem4f.oem4f (.text:ti_sysbios_knl_Clock_create)
                  00016fa0    00000038     sysbios.aem4f : BIOS.obj (.text:ti_sysbios_knl_Task_processVitalTaskFlag__I)
                  00016fd8    00000038     ti.targets.arm.rtsarm.aem4f : SysMin.oem4f (.text:xdc_runtime_SysMin_putch__E)
                  00017010    00000038                                 : System.oem4f (.text:xdc_runtime_System_atexit__E)
                  00017048    00000036     stk.aem4f : ip.oem4f (.text:IPChecksum)
                  0001707e    00000036     ff.obj (.text:ld_dword)
                  000170b4    00000036     rtsv7M4_T_le_v4SPD16_eabi.lib : strncpy.c.obj (.text:strncpy)
                  000170ea    00000002     --HOLE-- [fill = 0]
                  000170ec    00000034     nettool_ipv4.aem4f : config.oem4f (.text:CfgSetService)
                  00017120    00000034     driverlib.lib : emac.obj (.text:EMACConfigSet)
                  00017154    00000034                   : emac.obj (.text:EMACIntClear)
                  00017188    00000034     drivers_tivaware.aem4f : EMACSnow.oem4f (.text:EMACSnow_emacPoll)
                  000171bc    00000034                            : EMACSnow.oem4f (.text:EMACSnow_isLinkUp)
                  000171f0    00000034                            : EMAC.oem4f (.text:EMAC_init)
                  00017224    00000034     stk.aem4f : exec.oem4f (.text:ExecClose)
                  00017258    00000034               : nimu.oem4f (.text:NIMUFindByName)
                  0001728c    00000034               : nimu.oem4f (.text:NIMUInit)
                  000172c0    00000034               : rawethsock.oem4f (.text:RawEthSockNotify)
                  000172f4    00000034               : sockprot.oem4f (.text:SockPrCtlError)
                  00017328    00000034     rtsv7M4_T_le_v4SPD16_eabi.lib : fopen.c.obj (.text:__TI_cleanup)
                  0001735c    00000034                                   : trgmsg.c.obj (.text:__TI_readmsg)
                  00017390    00000034     os.aem4f : mem.oem4f (.text:mmUnInitPage)
                  000173c4    00000034     rtsv7M4_T_le_v4SPD16_eabi.lib : strstr.c.obj (.text:strstr)
                  000173f8    00000034     sysbios.aem4f : BIOS.obj (.text:ti_sysbios_family_arm_m3_Hwi_Instance_finalize__E)
                  0001742c    00000004     tcpEcho_pem4f.oem4f (.text:ti_sysbios_knl_Swi_delete)
                  00017430    00000034     sysbios.aem4f : BIOS.obj (.text:ti_sysbios_family_arm_m3_Hwi_excNmi__I)
                  00017464    00000004     tcpEcho_pem4f.oem4f (.text:ti_sysbios_knl_Task_delete)
                  00017468    00000034     sysbios.aem4f : BIOS.obj (.text:ti_sysbios_hal_Hwi_checkStack)
                  0001749c    00000034     tcpEcho_pem4f.oem4f (.text:ti_sysbios_knl_Semaphore_create)
                  000174d0    00000034     ti.targets.arm.rtsarm.aem4f : Core-label.oem4f (.text:xdc_runtime_Core_assignLabel__I)
                  00017504    00000033                                 : Text.oem4f (.text:xdc_runtime_Text_printVisFxn__I)
                  00017537    00000001     --HOLE-- [fill = 0]
                  00017538    00000032     nettool_ipv4.aem4f : config.oem4f (.text:CfgGetImmediate)
                  0001756a    00000032     stk.aem4f : route.oem4f (.text:RtDeRef)
                  0001759c    00000032               : route.oem4f (.text:RtSetFailure)
                  000175ce    00000032               : sb.oem4f (.text:SBFlush)
                  00017600    00000032               : sb.oem4f (.text:SBSetMax)
                  00017632    00000032               : sock.oem4f (.text:SockIntAbort)
                  00017664    00000032     nettool_ipv4.aem4f : config.oem4f (.text:_CfgAcquire)
                  00017696    00000032                        : dhcpsm.oem4f (.text:dhcpIPRemove)
                  000176c8    00000032     ff.obj (.text:f_close)
                  000176fa    00000006     driverlib.lib : emac.obj (.text:EMACRxDMADescriptorListSet)
                  00017700    00000032     sysbios.aem4f : BIOS.obj (.text:ti_sysbios_hal_Hwi_initStack)
                  00017732    00000006     driverlib.lib : emac.obj (.text:EMACTxDMADescriptorListSet)
                  00017738    00000032     sysbios.aem4f : BIOS.obj (.text:ti_sysbios_knl_Semaphore_pendTimeout__I)
                  0001776a    00000030     driverlib.lib : emac.obj (.text:EMACAddrSet)
                  0001779a    00000002     --HOLE-- [fill = 0]
                  0001779c    00000030     drivers_tivaware.aem4f : EMACSnow.oem4f (.text:EMACSnow_handlePackets)
                  000177cc    00000030     SST26VF032B.obj (.text:GlobalWriteProtectUnlock)
                  000177fc    00000030     SST26VF032B.obj (.text:LockBPR)
                  0001782c    00000030     netctrl_min_ipv4.aem4f : netsrv.oem4f (.text:NS_PreBoot)
                  0001785c    00000030     stk.aem4f : sock.oem4f (.text:SockBind)
                  0001788c    00000030               : sock.oem4f (.text:SockGetName)
                  000178bc    00000030     rtsv7M4_T_le_v4SPD16_eabi.lib : snprintf.c.obj (.text:_outs)
                  000178ec    00000030     ff.obj (.text:clst2sect)
                  0001791c    00000030     nettool_ipv4.aem4f : dhcpsock.oem4f (.text:dhcpPacketSend)
                  0001794c    00000030     rtsv7M4_T_le_v4SPD16_eabi.lib : getdevice.c.obj (.text:finddevice)
                  0001797c    00000030     stk.aem4f : listlib.oem4f (.text:list_remove_node)
                  000179ac    00000030     ff.obj (.text:st_word)
                  000179dc    00000030     tcpEcho_pem4f.oem4f (.text:ti_sysbios_BIOS_atExitFunc__I)
                  00017a0c    00000004     ti.targets.arm.rtsarm.aem4f : Error.oem4f (.text:xdc_runtime_Error_getMsg__E)
                  00017a10    00000030     sysbios.aem4f : BIOS.obj (.text:ti_sysbios_family_arm_lm4_Timer_stop__E)
                  00017a40    00000030                   : BIOS.obj (.text:ti_sysbios_family_arm_m3_TaskSupport_start__E)
                  00017a70    00000030     tcpEcho_pem4f.oem4f (.text:ti_sysbios_gates_GateHwi_Object__create__S)
                  00017aa0    00000030     tcpEcho_pem4f.oem4f (.text:ti_sysbios_gates_GateMutex_Object__create__S)
                  00017ad0    00000030     sysbios.aem4f : BIOS.obj (.text:ti_sysbios_gates_GateMutex_enter__E)
                  00017b00    00000030     tcpEcho_pem4f.oem4f (.text:ti_sysbios_heaps_HeapMem_Object__create__S)
                  00017b30    00000030     tcpEcho_pem4f.oem4f (.text:ti_sysbios_knl_Semaphore_construct)
                  00017b60    00000030     ti.targets.arm.rtsarm.aem4f : SysMin.oem4f (.text:xdc_runtime_SysMin_abort__E)
                  00017b90    00000030                                 : System.oem4f (.text:xdc_runtime_System_processAtExit__E)
                  00017bc0    0000002e     stk.aem4f : sb.oem4f (.text:SBFree)
                  00017bee    0000002e     tcpEcho_pem4f.oem4f (.text:malloc)
                  00017c1c    0000002e     rtsv7M4_T_le_v4SPD16_eabi.lib : i_tofd_t2.asm.obj (.text)
                  00017c4a    0000002c     driverlib.lib : emac.obj (.text:EMACIntStatus)
                  00017c76    0000002c     stk.aem4f : file.oem4f (.text:FdSignalEvent)
                  00017ca2    00000002     --HOLE-- [fill = 0]
                  00017ca4    0000002c               : igmp.oem4f (.text:IGMPTestGroup)
                  00017cd0    0000002c     os.aem4f : task.oem4f (.text:NDK_hookCreate)
                  00017cfc    0000002c     stk.aem4f : nimu.oem4f (.text:NIMUAllocateIndex)
                  00017d28    0000002c               : nimu.oem4f (.text:NIMUPacketServiceCheck)
                  00017d54    0000002c               : pipe.oem4f (.text:PipeClose)
                  00017d80    0000002c               : sockpcb.oem4f (.text:SockPcbAttach)
                  00017dac    0000002c     SST26VF032B.obj (.text:TEST_spi_init)
                  00017dd8    0000002c     stk.aem4f : lli.oem4f (.text:_LLIExpListRemove)
                  00017e04    0000002c               : lli.oem4f (.text:_LLITimeoutFlush)
                  00017e30    0000002c               : rtable.oem4f (.text:_RtExpListRemove)
                  00017e5c    0000002c     ff.obj (.text:ld_clust)
                  00017e88    0000002c     rtsv7M4_T_le_v4SPD16_eabi.lib : strncmp.c.obj (.text:strncmp)
                  00017eb4    0000002c     tcpEcho_pem4f.oem4f (.text:ti_sysbios_knl_Clock_doTick__I)
                  00017ee0    0000002c     tcpEcho_pem4f.oem4f (.text:ti_sysbios_knl_Queue_construct)
                  00017f0c    00000004     ti.targets.arm.rtsarm.aem4f : Error.oem4f (.text:xdc_runtime_Error_getSite__E)
                  00017f10    0000002c     sysbios.aem4f : BIOS.obj (.text:ti_sysbios_knl_Task_restore__E)
                  00017f3c    0000002c     rtsv7M4_T_le_v4SPD16_eabi.lib : unlink.c.obj (.text:unlink)
                  00017f68    0000002c     ti.targets.arm.rtsarm.aem4f : Text.oem4f (.text:xdc_runtime_Text_cordText__E)
                  00017f94    0000002a     stk.aem4f : pbm.oem4f (.text:PBMQ_deq)
                  00017fbe    0000002a     netctrl_min_ipv4.aem4f : netsrv.oem4f (.text:ServiceCallback)
                  00017fe8    0000002a     nettool_ipv4.aem4f : config.oem4f (.text:_CfgRelease)
                  00018012    0000002a     SST26VF032B.obj (.text:receive)
                  0001803c    0000002a     ff.obj (.text:st_clust)
                  00018066    0000002a     ti.targets.arm.rtsarm.aem4f : System.oem4f (.text:xdc_runtime_System_putchar__I)
                  00018090    00000028     stk.aem4f : bind.oem4f (.text:BindFindByNet)
                  000180b8    00000028               : lli.oem4f (.text:LLIFree)
                  000180e0    00000028     netctrl_min_ipv4.aem4f : netctrl.oem4f (.text:NC_SystemClose)
                  00018108    00000028     stk.aem4f : nimu.oem4f (.text:NIMUCreatePacket)
                  00018130    00000028               : nimu.oem4f (.text:NIMUPacketService)
                  00018158    00000028               : tcpin.oem4f (.text:TcpEnterTimeWait)
                  00018180    00000028               : timer.oem4f (.text:TimerListRemove)
                  000181a8    00000028               : vlan.oem4f (.text:VLANFindSourceInterface)
                  000181d0    00000028               : vlan.oem4f (.text:VLANInit)
                  000181f8    00000028     nettool_ipv4.aem4f : dhcpsock.oem4f (.text:dhcpPacketReceive)
                  00018220    00000028     rtsv7M4_T_le_v4SPD16_eabi.lib : lseek.c.obj (.text:lseek)
                  00018248    00000028     drivers_tivaware.aem4f : EMACSnow.oem4f (.text:signalLinkChange)
                  00018270    00000028     sysbios.aem4f : BIOS.obj (.text:ti_sysbios_knl_Clock_addI__E)
                  00018298    00000028                   : BIOS.obj (.text:ti_sysbios_knl_Swi_Module_startup__E)
                  000182c0    00000028     rtsv7M4_T_le_v4SPD16_eabi.lib : write.c.obj (.text:write)
                  000182e8    00000026     nettool_ipv4.aem4f : config.oem4f (.text:CfgEntryInfo)
                  0001830e    00000026     driverlib.lib : emac.obj (.text:EMACPHYRead)
                  00018334    00000026                   : emac.obj (.text:EMACPHYWrite)
                  0001835a    00000026     stk.aem4f : rawethsock.oem4f (.text:RawEthSockClose)
                  00018380    00000026     ff.obj (.text:ld_word)
                  000183a6    00000026     SST26VF032B.obj (.text:send)
                  000183cc    00000026     tcpEcho_pem4f.oem4f (.text:ti_ndk_config_udp_init)
                  000183f2    00000026     sysbios.aem4f : m3_Hwi_asm.obj (.text:ti_sysbios_family_arm_m3_Hwi_pendSV__I)
                  00018418    00000026     ti.targets.arm.rtsarm.aem4f : System.oem4f (.text:xdc_runtime_System_avprintf__E)
                  0001843e    00000002     --HOLE-- [fill = 0]
                  00018440    00000024     stk.aem4f : bind.oem4f (.text:BindFindByHost)
                  00018464    00000024               : bind.oem4f (.text:BindGetIFByDBCast)
                  00018488    00000024     drivers_tivaware.aem4f : EMACSnow.oem4f (.text:EMACSnow_pkt_service)
                  000184ac    00000024                            : EMACSnow.oem4f (.text:EMACSnow_primeRx)
                  000184d0    00000024     stk.aem4f : exec.oem4f (.text:ExecTimer)
                  000184f4    00000024     gpio.obj (.text:GPIOPinTypeEthernetLED)
                  00018518    00000024     gpio.obj (.text:GPIOPinTypeGPIOOutput)
                  0001853c    00000024     gpio.obj (.text:GPIOPinTypeSSI)
                  00018560    00000024     stk.aem4f : nimu.oem4f (.text:NIMUFindByIndex)
                  00018584    00000024               : rtc.oem4f (.text:RTCAddHook)
                  000185a8    00000024               : rawethsock_pcb.oem4f (.text:RawEthSockPcbFind)
                  000185cc    00000024               : route.oem4f (.text:RtFree)
                  000185f0    00000024               : route.oem4f (.text:RtSetTimeout)
                  00018614    00000024               : sockpcb.oem4f (.text:SockPcbCleanup)
                  00018638    00000024               : tcpprot.oem4f (.text:TcpPrListen)
                  0001865c    00000024               : tcptime.oem4f (.text:TcpTimeoutWait2)
                  00018680    00000024     nettool_ipv4.aem4f : config.oem4f (.text:_CfgEntryProcess)
                  000186a4    00000024     rtsv7M4_T_le_v4SPD16_eabi.lib : memcmp.c.obj (.text:memcmp)
                  000186c8    00000024     tcpEcho_pem4f.oem4f (.text:ti_sysbios_BIOS_errorRaiseHook__I)
                  000186ec    00000024     tcpEcho_pem4f.oem4f (.text:ti_sysbios_BIOS_registerRTSLock__I)
                  00018710    00000024     tcpEcho_pem4f.oem4f (.text:ti_sysbios_BIOS_removeRTSLock__I)
                  00018734    00000024     tcpEcho_pem4f.oem4f (.text:ti_sysbios_BIOS_startFunc__I)
                  00018758    00000024     tcpEcho_pem4f.oem4f (.text:ti_sysbios_gates_GateMutex_Object__delete__S)
                  0001877c    00000004     tcpEcho_pem4f.oem4f (.text:xdc_runtime_System_Module_GateProxy_enter__E)
                  00018780    00000024     sysbios.aem4f : BIOS.obj (.text:ti_sysbios_knl_Clock_Module_startup__E)
                  000187a4    00000004     tcpEcho_pem4f.oem4f (.text:xdc_runtime_System_Module_GateProxy_leave__E)
                  000187a8    00000024     sysbios.aem4f : BIOS.obj (.text:ti_sysbios_knl_Semaphore_Instance_init__E)
                  000187cc    00000024     tcpEcho_pem4f.oem4f (.text:ti_sysbios_knl_Semaphore_Object__delete__S)
                  000187f0    00000024     sysbios.aem4f : BIOS.obj (.text:ti_sysbios_knl_Task_restoreHwi__E)
                  00018814    00000024     user_diskio.obj (.text:user_disk_initialize)
                  00018838    00000024     ti.targets.arm.rtsarm.aem4f : System.oem4f (.text:xdc_runtime_System_vprintf__E)
                  0001885c    00000022     nettool_ipv4.aem4f : config.oem4f (.text:CfgEntryRef)
                  0001887e    00000022     gpio.obj (.text:GPIOIntStatus)
                  000188a0    00000022     ssi.obj (.text:SSIDataGetNonBlocking)
                  000188c2    00000022     stk.aem4f : vlan.oem4f (.text:VLANFindNode)
                  000188e4    00000022     old_main.obj (.text:setsockopt)
                  00018906    00000002     --HOLE-- [fill = 0]
                  00018908    00000022     sysbios.aem4f : BIOS.obj (.text:ti_sysbios_family_arm_lm4_Timer_write__I)
                  0001892a    00000022     tcpEcho_pem4f.oem4f (.text:xdc_runtime_SysMin_output__I)
                  0001894c    00000020     gpio.obj (.text:GPIOPinWrite)
                  0001896c    00000020     netctrl_min_ipv4.aem4f : netctrl.oem4f (.text:NC_BootComplete)
                  0001898c    00000020     stk.aem4f : nimu.oem4f (.text:NIMUGetNumOfObject)
                  000189ac    00000020               : rtc.oem4f (.text:RTCRemoveHook)
                  000189cc    00000020               : tcp.oem4f (.text:TcpTimeoutRemove)
                  000189ec    00000020     Boot.aem4f : Boot_sysctl.oem4f (.text:_SysCtlMemTimingGet)
                  00018a0c    00000020     rtsv7M4_T_le_v4SPD16_eabi.lib : memchr.c.obj (.text:memchr)
                  00018a2c    00000020     tcpEcho_pem4f.oem4f (.text:ti_sysbios_BIOS_rtsLock__I)
                  00018a4c    00000020     tcpEcho_pem4f.oem4f (.text:ti_sysbios_family_arm_m3_Hwi_Object__delete__S)
                  00018a6c    00000020     sysbios.aem4f : m3_Hwi_asm.obj (.text:ti_sysbios_family_arm_m3_Hwi_excHandlerAsm__I)
                  00018a8c    00000004     ti.targets.arm.rtsarm.aem4f : System.oem4f (.text:xdc_runtime_System_aprintf_va__F)
                  00018a90    00000020     sysbios.aem4f : BIOS.obj (.text:ti_sysbios_family_arm_m3_Hwi_excHandler__I)
                  00018ab0    00000020     tcpEcho_pem4f.oem4f (.text:ti_sysbios_gates_GateHwi_Object__delete__S)
                  00018ad0    00000020     tcpEcho_pem4f.oem4f (.text:ti_sysbios_heaps_HeapMem_Object__delete__S)
                  00018af0    00000020     sysbios.aem4f : BIOS.obj (.text:ti_sysbios_knl_Idle_run__E)
                  00018b10    00000020     tcpEcho_pem4f.oem4f (.text:ti_sysbios_knl_Semaphore_Object__destruct__S)
                  00018b30    00000020     tcpEcho_pem4f.oem4f (.text:ti_sysbios_knl_Swi_Object__delete__S)
                  00018b50    00000020     tcpEcho_pem4f.oem4f (.text:ti_sysbios_knl_Task_Object__delete__S)
                  00018b70    00000020     ti.targets.arm.rtsarm.aem4f : Registry.oem4f (.text:xdc_runtime_Registry_findById__E)
                  00018b90    00000020                                 : SysMin.oem4f (.text:xdc_runtime_SysMin_Module_startup__E)
                  00018bb0    0000001e     ssi.obj (.text:SSIBusy)
                  00018bce    0000001e     ssi.obj (.text:SSIIntStatus)
                  00018bec    0000001e     stk.aem4f : listlib.oem4f (.text:list_remove)
                  00018c0a    0000001e     old_main.obj (.text:recv)
                  00018c28    0000001e     old_main.obj (.text:send)
                  00018c46    0000001e     sysbios.aem4f : m3_Hwi_asm_switch.obj (.text:ti_sysbios_family_xxx_Hwi_switchAndRunFunc)
                  00018c64    0000001c     stk.aem4f : bind.oem4f (.text:BindFindByIF)
                  00018c80    0000001c     SST26VF032B.obj (.text:Clock_Init)
                  00018c9c    0000001c     stk.aem4f : exec.oem4f (.text:ExecBroadcast)
                  00018cb8    0000001c     SST26VF032B.obj (.text:Led_Init)
                  00018cd4    0000001c     os.aem4f : ossys.oem4f (.text:NDK_sprintf)
                  00018cf0    0000001c     stk.aem4f : nimu.oem4f (.text:NIMUAddHeader)
                  00018d0c    0000001c     ssi.obj (.text:SSIDataGet)
                  00018d28    0000001c     stk.aem4f : sockprot.oem4f (.text:SockPrDetach)
                  00018d44    0000001c     os.aem4f : task.oem4f (.text:TaskDestroy)
                  00018d60    0000001c     drivers_tivaware.aem4f : GPIOTiva.oem4f (.text:getGpioIntIndex)
                  00018d7c    0000001c     rtsv7M4_T_le_v4SPD16_eabi.lib : memccpy.c.obj (.text:memccpy)
                  00018d98    0000001c     tcpEcho_pem4f.oem4f (.text:ti_ndk_config_global_taskCreateHook)
                  00018db4    00000004     ti.targets.arm.rtsarm.aem4f : System.oem4f (.text:xdc_runtime_System_printf_va__F)
                  00018db8    0000001c     sysbios.aem4f : BIOS.obj (.text:ti_sysbios_gates_GateMutex_Instance_init__E)
                  00018dd4    0000001c     tcpEcho_pem4f.oem4f (.text:ti_sysbios_knl_Queue_Object__destruct__S)
                  00018df0    0000001c     sysbios.aem4f : BIOS.obj (.text:ti_sysbios_knl_Queue_put__E)
                  00018e0c    00000004     --HOLE-- [fill = 0]
                  00018e10    0000001c                   : BIOS.obj (.text:ti_sysbios_knl_Task_enter__I)
                  00018e2c    0000001c     ti.targets.arm.rtsarm.aem4f : Error.oem4f (.text:xdc_runtime_Error_raiseX__E)
                  00018e48    0000001c                                 : Memory.oem4f (.text:xdc_runtime_Memory_valloc__E)
                  00018e64    0000001c                                 : SysMin.oem4f (.text:xdc_runtime_SysMin_exit__E)
                  00018e80    0000001c                                 : System.oem4f (.text:xdc_runtime_System_abort__E)
                  00018e9c    0000001a     stk.aem4f : bind.oem4f (.text:BindGetIP)
                  00018eb6    0000001a     ssi.obj (.text:SSIDataPut)
                  00018ed0    0000001a     stk.aem4f : sockint.oem4f (.text:SockSetOOBMark)
                  00018eea    0000001a     rtsv7M4_T_le_v4SPD16_eabi.lib : s_copysign.c.obj (.text:copysign)
                  00018f04    0000001a     stk.aem4f : file.oem4f (.text:fdint_getfdt)
                  00018f1e    0000001a     tcpEcho_pem4f.oem4f (.text:free)
                  00018f38    0000001a     tcpEcho_pem4f.oem4f (.text:ti_sysbios_family_arm_m3_Hwi_Handle__label__S)
                  00018f52    0000001a     tcpEcho_pem4f.oem4f (.text:ti_sysbios_gates_GateHwi_Handle__label__S)
                  00018f6c    0000001a     tcpEcho_pem4f.oem4f (.text:ti_sysbios_gates_GateMutex_Handle__label__S)
                  00018f86    0000001a     tcpEcho_pem4f.oem4f (.text:ti_sysbios_heaps_HeapMem_Handle__label__S)
                  00018fa0    0000001a     tcpEcho_pem4f.oem4f (.text:ti_sysbios_knl_Swi_Handle__label__S)
                  00018fba    0000001a     tcpEcho_pem4f.oem4f (.text:ti_sysbios_knl_Task_Handle__label__S)
                  00018fd4    00000004     --HOLE-- [fill = 0]
                  00018fd8    0000001a     sysbios.aem4f : BIOS.obj (.text:ti_sysbios_knl_Task_sleepTimeout__I)
                  00018ff2    0000001a     tcpEcho_pem4f.oem4f (.text:xdc_runtime_System_aprintf__E)
                  0001900c    0000001a     tcpEcho_pem4f.oem4f (.text:xdc_runtime_System_printf__E)
                  00019026    00000002     --HOLE-- [fill = 0]
                  00019028    00000018     drivers_tivaware.aem4f : EMACSnow.oem4f (.text:EMACSnow_emacSend)
                  00019040    00000018     stk.aem4f : ip.oem4f (.text:IPRtChange)
                  00019058    00000018               : rawethsock_pcb.oem4f (.text:RawEthSockPcbCleanup)
                  00019070    00000018     nettool_ipv4.aem4f : ipaddr.oem4f (.text:RouteHook)
                  00019088    00000018     stk.aem4f : tcpin.oem4f (.text:SEQ_GEQ)
                  000190a0    00000018               : tcpout.oem4f (.text:SEQ_GEQ)
                  000190b8    00000018               : tcpin.oem4f (.text:SEQ_GT)
                  000190d0    00000018               : tcpout.oem4f (.text:SEQ_GT)
                  000190e8    00000018               : tcpin.oem4f (.text:SEQ_LEQ)
                  00019100    00000018               : tcpout.oem4f (.text:SEQ_LEQ)
                  00019118    00000018               : tcpin.oem4f (.text:SEQ_LT)
                  00019130    00000018               : tcpout.oem4f (.text:SEQ_LT)
                  00019148    00000018               : tcp.oem4f (.text:TcpTimeoutAdd)
                  00019160    00000018     rtsv7M4_T_le_v4SPD16_eabi.lib : args_main.c.obj (.text:_args_main)
                  00019178    00000018                                   : snprintf.c.obj (.text:_outc)
                  00019190    00000018     nettool_ipv4.aem4f : dhcpsock.oem4f (.text:dhcpSocketClose)
                  000191a8    00000018     stk.aem4f : listlib.oem4f (.text:list_add)
                  000191c0    00000018     rtsv7M4_T_le_v4SPD16_eabi.lib : ll_mul_t2.asm.obj (.text)
                  000191d8    00000018                                   : strcmp.c.obj (.text:strcmp)
                  000191f0    00000018                                   : strrchr.c.obj (.text:strrchr)
                  00019208    00000018     tcpEcho_pem4f.oem4f (.text:ti_sysbios_BIOS_rtsUnlock__I)
                  00019220    00000018     tcpEcho_pem4f.oem4f (.text:ti_sysbios_family_arm_lm4_Timer_Module__startupDone__F)
                  00019238    00000018     tcpEcho_pem4f.oem4f (.text:ti_sysbios_family_arm_m3_Hwi_Module__startupDone__F)
                  00019250    00000018     sysbios.aem4f : m3_TaskSupport_asm.obj (.text:ti_sysbios_family_arm_m3_TaskSupport_swap__E)
                  00019268    00000018                   : BIOS.obj (.text:ti_sysbios_gates_GateMutex_leave__E)
                  00019280    00000018     ti.targets.arm.rtsarm.aem4f : Error.oem4f (.text:xdc_runtime_Error_check__E)
                  00019298    00000018                                 : System.oem4f (.text:xdc_runtime_System_exit__E)
                  000192b0    00000018                                 : Text.oem4f (.text:xdc_runtime_Text_ropeText__E)
                  000192c8    00000016     driverlib.lib : emac.obj (.text:EMACReset)
                  000192de    00000016                   : emac.obj (.text:EMACRxEnable)
                  000192f4    00000016                   : emac.obj (.text:EMACTxEnable)
                  0001930a    00000016     ssi.obj (.text:SSIEnable)
                  00019320    00000016     stk.aem4f : file.oem4f (.text:fdint_freefdt)
                  00019336    00000016     rtsv7M4_T_le_v4SPD16_eabi.lib : strchr.c.obj (.text:strchr)
                  0001934c    00000016     tcpEcho_pem4f.oem4f (.text:ti_sysbios_BIOS_exitFunc__I)
                  00019362    00000016     old_main.obj (.text:ti_sysbios_knl_Task_Params_init)
                  00019378    00000016     tcpEchoHooks.obj (.text:ti_sysbios_knl_Task_Params_init)
                  0001938e    00000016     ti.targets.arm.rtsarm.aem4f : System.oem4f (.text:xdc_runtime_System_vsprintf__E)
                  000193a4    00000014     stk.aem4f : bind.oem4f (.text:BindIPHost2IF)
                  000193b8    00000014     driverlib.lib : flash.obj (.text:FlashUserGet)
                  000193cc    00000014     gpio.obj (.text:GPIOIntClear)
                  000193e0    00000014     netctrl_min_ipv4.aem4f : netctrl.oem4f (.text:NC_NetStop)
                  000193f4    00000014     os.aem4f : task.oem4f (.text:NDK_hookExit)
                  00019408    00000014     stk.aem4f : nimu.oem4f (.text:NIMUSendPacket)
                  0001941c    00000014     nettool_ipv4.aem4f : ipaddr.oem4f (.text:NtRemoveNetwork)
                  00019430    00000014     stk.aem4f : rawethsock_pcb.oem4f (.text:RawEthSockPcbInit)
                  00019444    00000014               : timer.oem4f (.text:TimerFree)
                  00019458    00000014     old_main.obj (.text:accept)
                  0001946c    00000014     old_main.obj (.text:bind)
                  00019480    00000014     old_main.obj (.text:socket)
                  00019494    00000014     rtsv7M4_T_le_v4SPD16_eabi.lib : strcpy.c.obj (.text:strcpy)
                  000194a8    00000014                                   : strlen.c.obj (.text:strlen)
                  000194bc    00000014     tcpEcho_pem4f.oem4f (.text:ti_ndk_config_global_taskExitHook)
                  000194d0    00000014     tcpEcho_pem4f.oem4f (.text:ti_sysbios_family_arm_m3_Hwi_Object__get__S)
                  000194e4    00000004     --HOLE-- [fill = 0]
                  000194e8    00000014     sysbios.aem4f : BIOS.obj (.text:ti_sysbios_family_arm_m3_Hwi_switchFromBootStack__E)
                  000194fc    00000014     tcpEcho_pem4f.oem4f (.text:ti_sysbios_heaps_HeapMem_Object__get__S)
                  00019510    00000014     tcpEcho_pem4f.oem4f (.text:ti_sysbios_knl_Swi_Object__get__S)
                  00019524    00000014     tcpEcho_pem4f.oem4f (.text:ti_sysbios_knl_Task_Object__first__S)
                  00019538    00000014     tcpEcho_pem4f.oem4f (.text:ti_sysbios_knl_Task_Object__next__S)
                  0001954c    00000014     SST26VF032B.obj (.text:wait)
                  00019560    00000012     stk.aem4f : sockprot.oem4f (.text:SockPrAttach)
                  00019572    00000012               : sockint.oem4f (.text:SockSetOOBData)
                  00019584    00000012     rtsv7M4_T_le_v4SPD16_eabi.lib : sscanf.c.obj (.text:_inpchar)
                  00019596    00000002     --HOLE-- [fill = 0]
                  00019598    00000012     sysbios.aem4f : BIOS.obj (.text:ti_sysbios_hal_Hwi_Module_startup__E)
                  000195aa    00000006     sysctl.obj (.text:SysCtlDelay)
                  000195b0    00000012     sysbios.aem4f : BIOS.obj (.text:ti_sysbios_knl_Semaphore_reset__E)
                  000195c2    00000012     rtsv7M4_T_le_v4SPD16_eabi.lib : wcslen.c.obj (.text:wcslen)
                  000195d4    00000012     tcpEcho_pem4f.oem4f (.text:xdc_runtime_Startup_exec__I)
                  000195e6    00000002     --HOLE-- [fill = 0]
                  000195e8    00000010     tcpEcho_pem4f.oem4f (.text:.bootCodeSection:ti_catalog_arm_cortexm4_tiva_ce_Boot_init__I)
                  000195f8    00000010     stk.aem4f : bind.oem4f (.text:BindIF2IPHost)
                  00019608    00000010               : bind.oem4f (.text:BindIFNet2IPHost)
                  00019618    00000010     driverlib.lib : emac.obj (.text:EMACFrameFilterSet)
                  00019628    00000010     stk.aem4f : exec.oem4f (.text:ExecHRef)
                  00019638    00000010     netctrl_min_ipv4.aem4f : netctrl.oem4f (.text:NC_IPUpdate)
                  00019648    00000010     stk.aem4f : nimu.oem4f (.text:NIMUGetRsvdSizeInfo)
                  00019658    00000010     old_main.obj (.text:listen)
                  00019668    00000010     sysbios.aem4f : BIOS.obj (.text:ti_sysbios_BIOS_getCpuFreq__E)
                  00019678    00000010                   : BIOS.obj (.text:ti_sysbios_BIOS_setThreadType__E)
                  00019688    00000010                   : BIOS.obj (.text:ti_sysbios_BIOS_start__E)
                  00019698    00000010                   : m3_TaskSupport_asm.obj (.text:ti_sysbios_family_arm_m3_TaskSupport_glue)
                  000196a8    00000010                   : BIOS.obj (.text:ti_sysbios_gates_GateMutex_Instance_finalize__E)
                  000196b8    00000010                   : BIOS.obj (.text:ti_sysbios_knl_Semaphore_Instance_finalize__E)
                  000196c8    00000010                   : BIOS.obj (.text:ti_sysbios_knl_Swi_disable__E)
                  000196d8    00000010     tcpEcho_pem4f.oem4f (.text:ti_sysbios_knl_Task_Object__get__S)
                  000196e8    00000010     sysbios.aem4f : BIOS.obj (.text:ti_sysbios_knl_Task_disable__E)
                  000196f8    00000010     ti.targets.arm.rtsarm.aem4f : Gate.oem4f (.text:xdc_runtime_Gate_leaveSystem__E)
                  00019708    00000010                                 : Memory.oem4f (.text:xdc_runtime_Memory_free__E)
                  00019718    00000010                                 : SysMin.oem4f (.text:xdc_runtime_SysMin_ready__E)
                  00019728    00000010                                 : System.oem4f (.text:xdc_runtime_System_vsnprintf__E)
                  00019738    00000010     tcpEcho_pem4f.oem4f (.text:xdc_runtime_Text_visitRope__I)
                  00019748    0000000e     drivers_tivaware.aem4f : EMACSnow.oem4f (.text:EMACSnow_emacioctl)
                  00019756    0000000e     stk.aem4f : exec.oem4f (.text:ExecLowResource)
                  00019764    0000000e     rtsv7M4_T_le_v4SPD16_eabi.lib : copy_decompress_none.c.obj (.text:decompress:none:__TI_decompress_none)
                  00019772    00000006     stk.aem4f : tcpprot.oem4f (.text:TcpPrRecv)
                  00019778    0000000e     sysbios.aem4f : BIOS.obj (.text:ti_sysbios_knl_Idle_loop__E)
                  00019786    00000002     --HOLE-- [fill = 0]
                  00019788    0000000e                   : BIOS.obj (.text:ti_sysbios_knl_Queue_empty__E)
                  00019796    00000002     --HOLE-- [fill = 0]
                  00019798    0000000c     stk.aem4f : bind.oem4f (.text:BindGetFirst)
                  000197a4    0000000c     nettool_ipv4.aem4f : config.oem4f (.text:CfgSetDefault)
                  000197b0    0000000c     drivers_tivaware.aem4f : EMACSnow.oem4f (.text:EMACSnow_init)
                  000197bc    0000000c     os.aem4f : task.oem4f (.text:NDK_hookInit)
                  000197c8    0000000c     stk.aem4f : nimu.oem4f (.text:NIMUSetRsvdSizeInfo)
                  000197d4    0000000c     os.aem4f : task.oem4f (.text:NotifyLowResource)
                  000197e0    0000000c     stk.aem4f : pbm.oem4f (.text:PBM_close)
                  000197ec    0000000c     os.aem4f : semaphore.oem4f (.text:SemDelete)
                  000197f8    0000000c     hal_timer_bios.aem4f : lltimer.oem4f (.text:_llTimerShutdown)
                  00019804    0000000c     rtsv7M4_T_le_v4SPD16_eabi.lib : _lock.c.obj (.text:_register_lock)
                  00019810    0000000c                                   : _lock.c.obj (.text:_register_unlock)
                  0001981c    0000000c     old_main.obj (.text:close)
                  00019828    0000000c     rtsv7M4_T_le_v4SPD16_eabi.lib : copy_zero_init.c.obj (.text:decompress:ZI:__TI_zero_init)
                  00019834    0000000c     hal_timer_bios.aem4f : lltimer.oem4f (.text:llTimerGetStartTime)
                  00019840    0000000c     sysbios.aem4f : BIOS.obj (.text:ti_sysbios_BIOS_getThreadType__E)
                  0001984c    00000004     --HOLE-- [fill = 0]
                  00019850    0000000c                   : BIOS.obj (.text:ti_sysbios_family_arm_lm4_Timer_getMaxTicks__E)
                  0001985c    0000000c     tcpEcho_pem4f.oem4f (.text:ti_sysbios_family_arm_m3_Hwi_Params__init__S)
                  00019868    0000000c     sysbios.aem4f : BIOS.obj (.text:ti_sysbios_family_arm_m3_Hwi_disableFxn__E)
                  00019874    00000004     --HOLE-- [fill = 0]
                  00019878    0000000c                   : BIOS.obj (.text:ti_sysbios_family_arm_m3_TaskSupport_checkStack__E)
                  00019884    00000004     --HOLE-- [fill = 0]
                  00019888    0000000c                   : BIOS.obj (.text:ti_sysbios_family_arm_m3_TaskSupport_getStackAlignment__E)
                  00019894    00000004     --HOLE-- [fill = 0]
                  00019898    0000000c                   : BIOS.obj (.text:ti_sysbios_gates_GateHwi_enter__E)
                  000198a4    0000000c     tcpEcho_pem4f.oem4f (.text:ti_sysbios_knl_Clock_Params__init__S)
                  000198b0    0000000c     sysbios.aem4f : BIOS.obj (.text:ti_sysbios_knl_Clock_getTicks__E)
                  000198bc    0000000c     tcpEcho_pem4f.oem4f (.text:ti_sysbios_knl_Queue_Object__get__S)
                  000198c8    0000000c     tcpEcho_pem4f.oem4f (.text:ti_sysbios_knl_Semaphore_Params__init__S)
                  000198d4    0000000c     tcpEcho_pem4f.oem4f (.text:ti_sysbios_knl_Task_Params__init__S)
                  000198e0    0000000c     sysbios.aem4f : BIOS.obj (.text:ti_sysbios_knl_Task_getIdleTask__E)
                  000198ec    00000004     --HOLE-- [fill = 0]
                  000198f0    0000000c                   : BIOS.obj (.text:ti_sysbios_knl_Task_self__E)
                  000198fc    0000000c     ti.targets.arm.rtsarm.aem4f : Error.oem4f (.text:xdc_runtime_Error_init__E)
                  00019908    0000000c                                 : Gate.oem4f (.text:xdc_runtime_Gate_enterSystem__E)
                  00019914    0000000c                                 : Memory.oem4f (.text:xdc_runtime_Memory_calloc__E)
                  00019920    0000000c                                 : Memory.oem4f (.text:xdc_runtime_Memory_getMaxDefaultTypeAlign__E)
                  0001992c    0000000a     stk.aem4f : file.oem4f (.text:fdint_signalevent)
                  00019936    0000000a               : file.oem4f (.text:fdint_signaltimeout)
                  00019940    0000000a     tcpEcho_pem4f.oem4f (.text:xdc_runtime_IHeap_alloc)
                  0001994a    0000000a     tcpEcho_pem4f.oem4f (.text:xdc_runtime_IHeap_free)
                  00019954    00000008     EK_TM4C1294XL.obj (.text:EK_TM4C1294XL_initGPIO)
                  0001995c    00000008     driverlib.lib : emac.obj (.text:EMACTxDMAPollDemand)
                  00019964    00000008     stk.aem4f : node.oem4f (.text:NodeFree)
                  0001996c    00000008     os.aem4f : task.oem4f (.text:TaskBlock)
                  00019974    00000008     rtsv7M4_T_le_v4SPD16_eabi.lib : errno.c.obj (.text:__aeabi_errno_addr)
                  0001997c    00000008                                   : sscanf.c.obj (.text:_uninpchar)
                  00019984    00000008     sysbios.aem4f : BIOS.obj (.text:ti_sysbios_family_arm_lm4_Timer_masterDisable__I)
                  0001998c    00000004     --HOLE-- [fill = 0]
                  00019990    00000008                   : BIOS.obj (.text:ti_sysbios_family_arm_m3_Hwi_doSwiRestore__I)
                  00019998    00000008                   : BIOS.obj (.text:ti_sysbios_family_arm_m3_Hwi_startup__E)
                  000199a0    00000008                   : BIOS.obj (.text:ti_sysbios_knl_Task_getHookContext__E)
                  000199a8    00000008                   : BIOS.obj (.text:ti_sysbios_knl_Task_setHookContext__E)
                  000199b0    00000006     ti.targets.arm.rtsarm.aem4f : xdc_noinit.oem4f (.text:__xdc__init)
                  000199b6    00000002     --HOLE-- [fill = 0]
                  000199b8    00000006     sysbios.aem4f : BIOS.obj (.text:ti_sysbios_family_arm_m3_Hwi_doTaskRestore__I)
                  000199be    00000002     --HOLE-- [fill = 0]
                  000199c0    00000006                   : BIOS.obj (.text:ti_sysbios_family_arm_m3_Hwi_restoreFxn__E)
                  000199c6    00000002     --HOLE-- [fill = 0]
                  000199c8    00000006                   : BIOS.obj (.text:ti_sysbios_gates_GateHwi_leave__E)
                  000199ce    00000002     --HOLE-- [fill = 0]
                  000199d0    00000006                   : BIOS.obj (.text:ti_sysbios_heaps_HeapMem_isBlocking__E)
                  000199d6    00000002     --HOLE-- [fill = 0]
                  000199d8    00000006                   : BIOS.obj (.text:ti_sysbios_knl_Queue_Instance_init__E)
                  000199de    00000002     --HOLE-- [fill = 0]
                  000199e0    00000006                   : BIOS.obj (.text:ti_sysbios_knl_Swi_startup__E)
                  000199e6    00000006     ti.targets.arm.rtsarm.aem4f : System.oem4f (.text:xdc_runtime_System_Module_startup__E)
                  000199ec    00000004     --HOLE-- [fill = 0]
                  000199f0    00000004     sysbios.aem4f : BIOS.obj (.text:ti_sysbios_gates_GateHwi_query__E)
                  000199f4    00000004     --HOLE-- [fill = 0]
                  000199f8    00000004                   : BIOS.obj (.text:ti_sysbios_gates_GateMutex_query__E)
                  000199fc    00000004     --HOLE-- [fill = 0]
                  00019a00    00000004                   : BIOS.obj (.text:ti_sysbios_knl_Task_startup__E)
                  00019a04    00000004     --HOLE-- [fill = 0]
                  00019a08    00000002                   : BIOS.obj (.text:ti_sysbios_gates_GateHwi_Instance_init__E)
                  00019a0a    00000006     --HOLE-- [fill = 0]
                  00019a10    00000002                   : BIOS.obj (.text:ti_sysbios_knl_Clock_logTick__E)
                  00019a12    00000006     --HOLE-- [fill = 0]
                  00019a18    00000002                   : BIOS.obj (.text:ti_sysbios_knl_Swi_Instance_finalize__E)

.const     0    00019a20    00011862     
                  00019a20    00007378     ffunicode.obj (.const:oem2uni932)
                  00020d98    00007378     ffunicode.obj (.const:uni2oem932)
                  00028110    0000191d     tcpEcho_pem4f.oem4f (.const:xdc_runtime_Text_charTab__A)
                  00029a2d    000002b7     old_main.obj (.const:.string:SCRIPT)
                  00029ce4    000001f2     ffunicode.obj (.const:cvt1$1)
                  00029ed6    000001e8     old_main.obj (.const:.string:STYLES)
                  0002a0be    00000002     tcpEcho_pem4f.oem4f (.const:ti_catalog_arm_cortexm4_tiva_ce_Boot_Module__id__C)
                  0002a0c0    000001b0     sysctl.obj (.const:g_pppui32XTALtoVCO)
                  0002a270    00000176     old_main.obj (.const:.string:INDEX)
                  0002a3e6    00000002     tcpEcho_pem4f.oem4f (.const:ti_sysbios_family_arm_m3_Hwi_Module__id__C)
                  0002a3e8    00000120     Boot.aem4f : Boot_sysctl.oem4f (.const:g_pppui32XTALtoVCO)
                  0002a508    00000101     rtsv7M4_T_le_v4SPD16_eabi.lib : ctype.c.obj (.const:.string:_ctypes_)
                  0002a609    00000001     tcpEcho_pem4f.oem4f (.const:.string:$P$T0$1)
                  0002a60a    000000d4     tcpEcho_pem4f.oem4f (.const:xdc_runtime_Text_nodeTab__A)
                  0002a6de    00000002     tcpEcho_pem4f.oem4f (.const:ti_sysbios_hal_Hwi_Module__id__C)
                  0002a6e0    000000cc     tcpEcho_pem4f.oem4f (.const:.string)
                  0002a7ac    00000004     tcpEcho_pem4f.oem4f (.const:ti_catalog_arm_cortexm4_tiva_ce_Boot_A_mustNotUseEnhancedClockMode__C)
                  0002a7b0    000000c8     rtsv7M4_T_le_v4SPD16_eabi.lib : strtod.c.obj (.const:$O1$$)
                  0002a878    000000bc     ffunicode.obj (.const:cvt2$2)
                  0002a934    00000090     gpio.obj (.const:g_pui32GPIOBaseAddrs)
                  0002a9c4    0000006c     Boot.aem4f : Boot_sysctl.oem4f (.const:g_pui32Xtals)
                  0002aa30    0000006c     sysctl.obj (.const:g_pui32Xtals)
                  0002aa9c    0000005a     old_main.obj (.const:.string:$P$T6$4)
                  0002aaf6    00000056     old_main.obj (.const:.string:$P$T7$5)
                  0002ab4c    00000054     drivers_tivaware.aem4f : GPIOTiva.oem4f (.const:.string)
                  0002aba0    00000054     stk.aem4f : sockprot.oem4f (.const:Code2Err)
                  0002abf4    00000048     drivers_tivaware.aem4f : GPIOTiva.oem4f (.const:gpioBaseAddresses)
                  0002ac3c    00000041     old_main.obj (.const:.string:$P$T1$2)
                  0002ac7d    00000001     tcpEcho_pem4f.oem4f (.const:xdc_runtime_Error_policy__C)
                  0002ac7e    00000002     tcpEcho_pem4f.oem4f (.const:ti_sysbios_heaps_HeapMem_Module__id__C)
                  0002ac80    0000003e     stk.aem4f : rtc.oem4f (.const:.string)
                  0002acbe    00000002     tcpEcho_pem4f.oem4f (.const:ti_sysbios_knl_Task_Module__id__C)
                  0002acc0    0000003c     tcpEcho_pem4f.oem4f (.const:ti_sysbios_knl_Task_Object__PARAMS__C)
                  0002acfc    00000030     Boot.aem4f : Boot_sysctl.oem4f (.const:g_sXTALtoMEMTIM)
                  0002ad2c    00000030     sysctl.obj (.const:g_sXTALtoMEMTIM)
                  0002ad5c    00000030     tcpEcho_pem4f.oem4f (.const:ti_sysbios_family_arm_m3_Hwi_Object__PARAMS__C)
                  0002ad8c    00000028     tcpEcho_pem4f.oem4f (.const:ti_sysbios_heaps_HeapMem_Module__FXNS__C)
                  0002adb4    00000028     tcpEcho_pem4f.oem4f (.const:ti_sysbios_knl_Swi_Object__PARAMS__C)
                  0002addc    00000024     tcpEcho_pem4f.oem4f (.const:ti_sysbios_gates_GateHwi_Module__FXNS__C)
                  0002ae00    00000024     tcpEcho_pem4f.oem4f (.const:ti_sysbios_gates_GateMutex_Module__FXNS__C)
                  0002ae24    00000024     tcpEcho_pem4f.oem4f (.const:ti_sysbios_heaps_HeapMem_Object__PARAMS__C)
                  0002ae48    00000024     tcpEcho_pem4f.oem4f (.const:ti_sysbios_knl_Clock_Object__PARAMS__C)
                  0002ae6c    00000024     tcpEcho_pem4f.oem4f (.const:ti_sysbios_knl_Semaphore_Object__PARAMS__C)
                  0002ae90    00000020     tcpEcho_pem4f.oem4f (.const:ti_sysbios_family_arm_m3_Hwi_Object__DESC__C)
                  0002aeb0    00000020     tcpEcho_pem4f.oem4f (.const:ti_sysbios_gates_GateHwi_Object__DESC__C)
                  0002aed0    00000020     tcpEcho_pem4f.oem4f (.const:ti_sysbios_gates_GateMutex_Object__DESC__C)
                  0002aef0    00000020     tcpEcho_pem4f.oem4f (.const:ti_sysbios_heaps_HeapMem_Object__DESC__C)
                  0002af10    00000020     tcpEcho_pem4f.oem4f (.const:ti_sysbios_knl_Clock_Object__DESC__C)
                  0002af30    00000020     tcpEcho_pem4f.oem4f (.const:ti_sysbios_knl_Queue_Object__DESC__C)
                  0002af50    00000020     tcpEcho_pem4f.oem4f (.const:ti_sysbios_knl_Semaphore_Object__DESC__C)
                  0002af70    00000020     tcpEcho_pem4f.oem4f (.const:ti_sysbios_knl_Swi_Object__DESC__C)
                  0002af90    00000020     tcpEcho_pem4f.oem4f (.const:ti_sysbios_knl_Task_Object__DESC__C)
                  0002afb0    00000020     tcpEcho_pem4f.oem4f (.const:xdc_runtime_Startup_sfxnTab__A)
                  0002afd0    00000018     EK_TM4C1294XL.obj (.const:EMAC_config)
                  0002afe8    00000018     driverlib.lib : emac.obj (.const)
                  0002b000    00000018     tcpEcho_pem4f.oem4f (.const)
                  0002b018    00000018     tcpEcho_pem4f.oem4f (.const:ti_sysbios_gates_GateHwi_Object__PARAMS__C)
                  0002b030    00000018     tcpEcho_pem4f.oem4f (.const:ti_sysbios_gates_GateMutex_Object__PARAMS__C)
                  0002b048    00000018     tcpEcho_pem4f.oem4f (.const:ti_sysbios_knl_Queue_Object__PARAMS__C)
                  0002b060    00000018     tcpEcho_pem4f.oem4f (.const:ti_sysbios_knl_Task_hooks__A)
                  0002b078    00000014     EK_TM4C1294XL.obj (.const:GPIOTiva_config)
                  0002b08c    00000014     tcpEcho_pem4f.oem4f (.const:xdc_runtime_Startup_firstFxns__A)
                  0002b0a0    00000010     rtsv7M4_T_le_v4SPD16_eabi.lib : _scanfi.c.obj (.const:$O1$$)
                  0002b0b0    00000010     EK_TM4C1294XL.obj (.const:emacHWAttrs)
                  0002b0c0    00000010     tcpEcho_pem4f.oem4f (.const:xdc_runtime_Startup_sfxnRts__A)
                  0002b0d0    0000000d     ff.obj (.const:.string:LfnOfs)
                  0002b0dd    0000000a     ff.obj (.const:.string:DbcTbl)
                  0002b0e7    00000001     --HOLE-- [fill = 0]
                  0002b0e8    00000008     Boot.aem4f : Boot_sysctl.oem4f (.const)
                  0002b0f0    00000008     drivers_tivaware.aem4f : EMACSnow.oem4f (.const)
                  0002b0f8    00000008     sysctl.obj (.const:g_pui32VCOFrequencies)
                  0002b100    00000008     tcpEcho_pem4f.oem4f (.const:ti_sysbios_family_arm_m3_Hwi_excHookFuncs__A)
                  0002b108    00000008     tcpEcho_pem4f.oem4f (.const:ti_sysbios_knl_Idle_funcList__A)
                  0002b110    00000008     tcpEcho_pem4f.oem4f (.const:ti_sysbios_knl_Idle_funcList__C)
                  0002b118    00000008     tcpEcho_pem4f.oem4f (.const:ti_sysbios_knl_Task_hooks__C)
                  0002b120    00000008     tcpEcho_pem4f.oem4f (.const:xdc_runtime_Startup_firstFxns__C)
                  0002b128    00000008     tcpEcho_pem4f.oem4f (.const:xdc_runtime_Startup_lastFxns__C)
                  0002b130    00000004     tcpEcho_pem4f.oem4f (.const:ti_catalog_arm_cortexm4_tiva_ce_Boot_Module__diagsEnabled__C)
                  0002b134    00000004     tcpEcho_pem4f.oem4f (.const:ti_catalog_arm_cortexm4_tiva_ce_Boot_Module__diagsIncluded__C)
                  0002b138    00000004     tcpEcho_pem4f.oem4f (.const:ti_catalog_arm_cortexm4_tiva_ce_Boot_Module__diagsMask__C)
                  0002b13c    00000004     tcpEcho_pem4f.oem4f (.const:ti_sysbios_family_arm_lm4_Timer_enableFunc__C)
                  0002b140    00000004     tcpEcho_pem4f.oem4f (.const:ti_sysbios_family_arm_lm4_Timer_numTimerDevices__C)
                  0002b144    00000004     tcpEcho_pem4f.oem4f (.const:ti_sysbios_family_arm_lm4_Timer_startupNeeded__C)
                  0002b148    00000004     tcpEcho_pem4f.oem4f (.const:ti_sysbios_family_arm_m3_Hwi_E_NMI__C)
                  0002b14c    00000004     tcpEcho_pem4f.oem4f (.const:ti_sysbios_family_arm_m3_Hwi_E_alreadyDefined__C)
                  0002b150    00000004     tcpEcho_pem4f.oem4f (.const:ti_sysbios_family_arm_m3_Hwi_E_busFault__C)
                  0002b154    00000004     tcpEcho_pem4f.oem4f (.const:ti_sysbios_family_arm_m3_Hwi_E_debugMon__C)
                  0002b158    00000004     tcpEcho_pem4f.oem4f (.const:ti_sysbios_family_arm_m3_Hwi_E_hardFault__C)
                  0002b15c    00000004     tcpEcho_pem4f.oem4f (.const:ti_sysbios_family_arm_m3_Hwi_E_memFault__C)
                  0002b160    00000004     tcpEcho_pem4f.oem4f (.const:ti_sysbios_family_arm_m3_Hwi_E_noIsr__C)
                  0002b164    00000004     tcpEcho_pem4f.oem4f (.const:ti_sysbios_family_arm_m3_Hwi_E_reserved__C)
                  0002b168    00000004     tcpEcho_pem4f.oem4f (.const:ti_sysbios_family_arm_m3_Hwi_E_svCall__C)
                  0002b16c    00000004     tcpEcho_pem4f.oem4f (.const:ti_sysbios_family_arm_m3_Hwi_E_usageFault__C)
                  0002b170    00000004     tcpEcho_pem4f.oem4f (.const:ti_sysbios_family_arm_m3_Hwi_NUM_INTERRUPTS__C)
                  0002b174    00000004     tcpEcho_pem4f.oem4f (.const:ti_sysbios_family_arm_m3_Hwi_Object__count__C)
                  0002b178    00000004     tcpEcho_pem4f.oem4f (.const:ti_sysbios_family_arm_m3_Hwi_ccr__C)
                  0002b17c    00000004     tcpEcho_pem4f.oem4f (.const:ti_sysbios_family_arm_m3_Hwi_excHandlerFunc__C)
                  0002b180    00000004     tcpEcho_pem4f.oem4f (.const:ti_sysbios_family_arm_m3_Hwi_excHookFuncs__C)
                  0002b184    00000004     tcpEcho_pem4f.oem4f (.const:ti_sysbios_family_arm_m3_Hwi_nullIsrFunc__C)
                  0002b188    00000004     tcpEcho_pem4f.oem4f (.const:ti_sysbios_family_arm_m3_Hwi_priGroup__C)
                  0002b18c    00000004     tcpEcho_pem4f.oem4f (.const:ti_sysbios_family_arm_m3_TaskSupport_stackAlignment__C)
                  0002b190    00000004     tcpEcho_pem4f.oem4f (.const:ti_sysbios_gates_GateMutex_Instance_State_sem__O)
                  0002b194    00000004     tcpEcho_pem4f.oem4f (.const:ti_sysbios_hal_Hwi_E_stackOverflow__C)
                  0002b198    00000004     tcpEcho_pem4f.oem4f (.const:ti_sysbios_heaps_HeapMem_E_memory__C)
                  0002b19c    00000004     tcpEcho_pem4f.oem4f (.const:ti_sysbios_heaps_HeapMem_Module__gateObj__C)
                  0002b1a0    00000004     tcpEcho_pem4f.oem4f (.const:ti_sysbios_heaps_HeapMem_Object__count__C)
                  0002b1a4    00000004     tcpEcho_pem4f.oem4f (.const:ti_sysbios_heaps_HeapMem_reqAlign__C)
                  0002b1a8    00000004     tcpEcho_pem4f.oem4f (.const:ti_sysbios_knl_Clock_Module_State_clockQ__O)
                  0002b1ac    00000004     tcpEcho_pem4f.oem4f (.const:ti_sysbios_knl_Clock_tickPeriod__C)
                  0002b1b0    00000004     tcpEcho_pem4f.oem4f (.const:ti_sysbios_knl_Semaphore_Instance_State_pendQ__O)
                  0002b1b4    00000004     tcpEcho_pem4f.oem4f (.const:ti_sysbios_knl_Swi_Object__count__C)
                  0002b1b8    00000004     tcpEcho_pem4f.oem4f (.const:ti_sysbios_knl_Task_E_deleteNotAllowed__C)
                  0002b1bc    00000004     tcpEcho_pem4f.oem4f (.const:ti_sysbios_knl_Task_E_spOutOfBounds__C)
                  0002b1c0    00000004     tcpEcho_pem4f.oem4f (.const:ti_sysbios_knl_Task_E_stackOverflow__C)
                  0002b1c4    00000004     tcpEcho_pem4f.oem4f (.const:ti_sysbios_knl_Task_Module_State_inactiveQ__O)
                  0002b1c8    00000004     tcpEcho_pem4f.oem4f (.const:ti_sysbios_knl_Task_Module_State_terminatedQ__O)
                  0002b1cc    00000004     tcpEcho_pem4f.oem4f (.const:ti_sysbios_knl_Task_Object__count__C)
                  0002b1d0    00000004     tcpEcho_pem4f.oem4f (.const:ti_sysbios_knl_Task_Object__heap__C)
                  0002b1d4    00000004     tcpEcho_pem4f.oem4f (.const:ti_sysbios_knl_Task_allBlockedFunc__C)
                  0002b1d8    00000004     tcpEcho_pem4f.oem4f (.const:ti_sysbios_knl_Task_defaultStackHeap__C)
                  0002b1dc    00000004     tcpEcho_pem4f.oem4f (.const:ti_sysbios_knl_Task_defaultStackSize__C)
                  0002b1e0    00000004     tcpEcho_pem4f.oem4f (.const:ti_sysbios_knl_Task_numConstructedTasks__C)
                  0002b1e4    00000004     tcpEcho_pem4f.oem4f (.const:xdc_runtime_Assert_E_assertFailed__C)
                  0002b1e8    00000004     tcpEcho_pem4f.oem4f (.const:xdc_runtime_Core_A_initializedParams__C)
                  0002b1ec    00000004     tcpEcho_pem4f.oem4f (.const:xdc_runtime_Core_Module__diagsEnabled__C)
                  0002b1f0    00000004     tcpEcho_pem4f.oem4f (.const:xdc_runtime_Core_Module__diagsIncluded__C)
                  0002b1f4    00000004     tcpEcho_pem4f.oem4f (.const:xdc_runtime_Core_Module__diagsMask__C)
                  0002b1f8    00000004     tcpEcho_pem4f.oem4f (.const:xdc_runtime_Error_E_memory__C)
                  0002b1fc    00000004     tcpEcho_pem4f.oem4f (.const:xdc_runtime_Error_Module__diagsEnabled__C)
                  0002b200    00000004     tcpEcho_pem4f.oem4f (.const:xdc_runtime_Error_Module__diagsIncluded__C)
                  0002b204    00000004     tcpEcho_pem4f.oem4f (.const:xdc_runtime_Error_Module__diagsMask__C)
                  0002b208    00000004     tcpEcho_pem4f.oem4f (.const:xdc_runtime_Error_Module__loggerFxn8__C)
                  0002b20c    00000004     tcpEcho_pem4f.oem4f (.const:xdc_runtime_Error_Module__loggerObj__C)
                  0002b210    00000004     tcpEcho_pem4f.oem4f (.const:xdc_runtime_Error_policyFxn__C)
                  0002b214    00000004     tcpEcho_pem4f.oem4f (.const:xdc_runtime_Error_raiseHook__C)
                  0002b218    00000004     tcpEcho_pem4f.oem4f (.const:xdc_runtime_IGateProvider_Interface__BASE__C)
                  0002b21c    00000004     tcpEcho_pem4f.oem4f (.const:xdc_runtime_IHeap_Interface__BASE__C)
                  0002b220    00000004     tcpEcho_pem4f.oem4f (.const:xdc_runtime_IModule_Interface__BASE__C)
                  0002b224    00000004     tcpEcho_pem4f.oem4f (.const:xdc_runtime_Log_L_error__C)
                  0002b228    00000004     tcpEcho_pem4f.oem4f (.const:xdc_runtime_Memory_defaultHeapInstance__C)
                  0002b22c    00000004     tcpEcho_pem4f.oem4f (.const:xdc_runtime_Startup_execImpl__C)
                  0002b230    00000004     tcpEcho_pem4f.oem4f (.const:xdc_runtime_Startup_maxPasses__C)
                  0002b234    00000004     tcpEcho_pem4f.oem4f (.const:xdc_runtime_Startup_sfxnRts__C)
                  0002b238    00000004     tcpEcho_pem4f.oem4f (.const:xdc_runtime_Startup_sfxnTab__C)
                  0002b23c    00000004     tcpEcho_pem4f.oem4f (.const:xdc_runtime_SysMin_bufSize__C)
                  0002b240    00000004     tcpEcho_pem4f.oem4f (.const:xdc_runtime_SysMin_outputFunc__C)
                  0002b244    00000004     tcpEcho_pem4f.oem4f (.const:xdc_runtime_System_Module__gateObj__C)
                  0002b248    00000004     tcpEcho_pem4f.oem4f (.const:xdc_runtime_System_abortFxn__C)
                  0002b24c    00000004     tcpEcho_pem4f.oem4f (.const:xdc_runtime_System_exitFxn__C)
                  0002b250    00000004     tcpEcho_pem4f.oem4f (.const:xdc_runtime_System_extendFxn__C)
                  0002b254    00000004     tcpEcho_pem4f.oem4f (.const:xdc_runtime_System_maxAtexitHandlers__C)
                  0002b258    00000004     tcpEcho_pem4f.oem4f (.const:xdc_runtime_Text_charTab__C)
                  0002b25c    00000004     tcpEcho_pem4f.oem4f (.const:xdc_runtime_Text_nameEmpty__C)
                  0002b260    00000004     tcpEcho_pem4f.oem4f (.const:xdc_runtime_Text_nameStatic__C)
                  0002b264    00000004     tcpEcho_pem4f.oem4f (.const:xdc_runtime_Text_nameUnknown__C)
                  0002b268    00000004     tcpEcho_pem4f.oem4f (.const:xdc_runtime_Text_nodeTab__C)
                  0002b26c    00000004     tcpEcho_pem4f.oem4f (.const:xdc_runtime_Text_visitRopeFxn__C)
                  0002b270    00000002     tcpEcho_pem4f.oem4f (.const:xdc_runtime_Core_Module__id__C)
                  0002b272    00000002     tcpEcho_pem4f.oem4f (.const:xdc_runtime_Error_Module__loggerDefined__C)
                  0002b274    00000002     tcpEcho_pem4f.oem4f (.const:xdc_runtime_Error_maxDepth__C)
                  0002b276    00000002     tcpEcho_pem4f.oem4f (.const:xdc_runtime_Memory_Module__id__C)
                  0002b278    00000002     tcpEcho_pem4f.oem4f (.const:xdc_runtime_SysMin_flushAtExit__C)
                  0002b27a    00000002     tcpEcho_pem4f.oem4f (.const:xdc_runtime_Text_charCnt__C)
                  0002b27c    00000002     tcpEcho_pem4f.oem4f (.const:xdc_runtime_Text_isLoaded__C)
                  0002b27e    00000002     tcpEcho_pem4f.oem4f (.const:xdc_runtime_Text_registryModsLastId__C)
                  0002b280    00000002     tcpEcho_pem4f.oem4f (.const:xdc_runtime_Text_unnamedModsLastId__C)

.cinit     0    0002b288    00000410     
                  0002b288    000003da     (.cinit..data.load) [load image, compression = lzss]
                  0002b662    00000002     --HOLE-- [fill = 0]
                  0002b664    0000000c     (__TI_handler_table)
                  0002b670    00000008     (.cinit..bss.load) [load image, compression = zero_init]
                  0002b678    00000008     (.cinit..vecs.load) [load image, compression = zero_init]
                  0002b680    00000018     (__TI_cinit_table)

.init_array 
*          0    00000000    00000000     UNINITIALIZED

.resetVecs 
*          0    00000000    0000003c     
                  00000000    0000003c     tcpEcho_pem4f.oem4f (.resetVecs)

.bss       0    20000380    00018737     UNINITIALIZED
                  20000380    0000c800     (.common:ti_sysbios_heaps_HeapMem_Instance_State_0_buf__A)
                  2000cb80    000048a8     tcpEcho_pem4f.oem4f (.bss:NDK_MMBUFFER)
                  20011428    0000004c     stk.aem4f : icmp.oem4f (.bss:_ICMPIn)
                  20011474    0000000c     (.common:PBMQ_free)
                  20011480    00003ef8     tcpEcho_pem4f.oem4f (.bss:NDK_PACKETMEM)
                  20015378    00001034     (.common:fs)
                  200163ac    00001028     (.common:file)
                  200173d4    00000004     ff.obj (.bss:FatFs)
                  200173d8    00000800     tcpEcho_pem4f.oem4f (.bss:taskStackSection)
                  20017bd8    00000360     (.common:ti_sysbios_family_arm_m3_Hwi_dispatchTable)
                  20017f38    00000200     ff.obj (.bss:LfnBuf)
                  20018138    00000120     rtsv7M4_T_le_v4SPD16_eabi.lib : trgmsg.c.obj (.bss:_CIOBUF_)
                  20018258    00000100     stk.aem4f : igmp.oem4f (.bss:igmp)
                  20018358    000000b8               : tcp.oem4f (.bss:tcps)
                  20018410    000000b4     netctrl_min_ipv4.aem4f : netsrv.oem4f (.bss:ipcfgcopy)
                  200184c4    000000a0     (.common:__TI_tmpnams)
                  20018564    00000090     drivers_tivaware.aem4f : EMACSnow.oem4f (.bss:g_pRxDescriptors)
                  200185f4    00000090                            : EMACSnow.oem4f (.bss:g_pTxDescriptors)
                  20018684    00000090                            : GPIOTiva.oem4f (.bss:gpioCallbackInfo)
                  20018714    00000080     (.common:xdc_runtime_SysMin_Module_State_0_outbuf__A)
                  20018794    00000068     stk.aem4f : ip.oem4f (.bss:ips)
                  200187fc    00000064               : nimu.oem4f (.bss:nimu_mcb)
                  20018860    0000004c               : icmp.oem4f (.bss:_ICMPOut)
                  200188ac    00000040     drivers_tivaware.aem4f : EMACSnow.oem4f (.bss:EMACSnow_private)
                  200188ec    00000028     stk.aem4f : vlan.oem4f (.bss:vlan_mcb)
                  20018914    00000024     netctrl_min_ipv4.aem4f : netsrv.oem4f (.bss:oscfgcopy)
                  20018938    00000024     stk.aem4f : udp.oem4f (.bss:udps)
                  2001895c    0000001c     (.common:BlockCount)
                  20018978    0000001c     (.common:BlockMax)
                  20018994    0000001c     (.common:PageCount)
                  200189b0    0000001c     (.common:PageMax)
                  200189cc    00000018     (.common:stkEvent)
                  200189e4    00000014     (.common:pfnHook)
                  200189f8    00000010     (.common:igmpCount)
                  20018a08    00000010     (.common:raweths)
                  20018a18    00000010     (.common:raws)
                  20018a28    0000000c     (.common:tpseudo)
                  20018a34    0000000c     (.common:upseudo)
                  20018a40    00000008     (.common:emacObjects)
                  20018a48    00000008     (.common:parmbuf)
                  20018a50    00000004     (.common:IPCache)
                  20018a54    00000004     (.common:IPTrialAddress)
                  20018a58    00000004     (.common:LastCLKTime)
                  20018a5c    00000004     (.common:LastCLKValid)
                  20018a60    00000004     (.common:NetHaltFlag)
                  20018a64    00000004     (.common:NetReturnCode)
                  20018a68    00000004     (.common:TimeMS)
                  20018a6c    00000004     (.common:TimeS)
                  20018a70    00000004     (.common:TimeStart)
                  20018a74    00000004     (.common:_IGMPInDiscard)
                  20018a78    00000004     (.common:_IGMPInQuery)
                  20018a7c    00000004     (.common:_IGMPInQueryGroup)
                  20018a80    00000004     (.common:_IGMPInResponse)
                  20018a84    00000004     (.common:_IGMPOutResponse)
                  20018a88    00000004     (.common:br)
                  20018a8c    00000004     (.common:bw)
                  20018a90    00000004     (.common:g_ulStatus)
                  20018a94    00000004     (.common:gpioInterruptVectors)
                  20018a98    00000004     (.common:hEvent)
                  20018a9c    00000004     (.common:hTimer$1)
                  20018aa0    00000004     (.common:hTimer$1)
                  20018aa4    00000004     (.common:raweth_pcb)
                  20018aa8    00000004     (.common:ti_sysbios_knl_Task_Instance_State_0_hookEnv__A)
                  20018aac    00000004     (.common:ti_sysbios_knl_Task_Instance_State_1_hookEnv__A)
                  20018ab0    00000004     (.common:ui32SysClock)
                  20018ab4    00000002     ff.obj (.bss)
                  20018ab6    00000001     old_main.obj (.bss)

.data      0    20018ab8    00000a30     UNINITIALIZED
                  20018ab8    000000f0     rtsv7M4_T_le_v4SPD16_eabi.lib : defs.c.obj (.data:_ftable)
                  20018ba8    000000b4     stk.aem4f : exec.oem4f (.data:_ipcfg)
                  20018c5c    00000098     tcpEcho_pem4f.oem4f (.data:ti_sysbios_knl_Task_Object__table__V)
                  20018cf4    00000080     tcpEcho_pem4f.oem4f (.data:ti_sysbios_knl_Swi_Module_State_0_readyQ__A)
                  20018d74    00000080     tcpEcho_pem4f.oem4f (.data:ti_sysbios_knl_Task_Module_State_0_readyQ__A)
                  20018df4    00000078     rtsv7M4_T_le_v4SPD16_eabi.lib : host_device.c.obj (.data:_device)
                  20018e6c    00000050                                   : host_device.c.obj (.data:_stream)
                  20018ebc    0000004d     nettool_ipv4.aem4f : dhcptags.oem4f (.data:DHCPTypeCode)
                  20018f09    00000001     --HOLE--
                  20018f0a    00000002     tcpEcho_pem4f.oem4f (.data:ti_sysbios_family_arm_m3_Hwi_Module_State_0_excActive__A)
                  20018f0c    00000044     tcpEcho_pem4f.oem4f (.data:ti_sysbios_knl_Task_Module__state__V)
                  20018f50    00000040     netctrl_min_ipv4.aem4f : netsrv.oem4f (.data:CloseOrder)
                  20018f90    00000040                            : netsrv.oem4f (.data:OpenOrder)
                  20018fd0    00000040     tcpEcho_pem4f.oem4f (.data:ti_sysbios_family_arm_lm4_Timer_Module_State_0_device__A)
                  20019010    00000040     tcpEcho_pem4f.oem4f (.data:ti_sysbios_family_arm_lm4_Timer_Object__table__V)
                  20019050    00000038     tcpEcho_pem4f.oem4f (.data:ti_sysbios_gates_GateMutex_Object__table__V)
                  20019088    00000034     stk.aem4f : tcptime.oem4f (.data:tcp_backoff)
                  200190bc    00000034     tcpEcho_pem4f.oem4f (.data:ti_sysbios_family_arm_m3_Hwi_Module__state__V)
                  200190f0    00000032     drivers_tivaware.aem4f : EMACSnow.oem4f (.data)
                  20019122    00000002     tcpEcho_pem4f.oem4f (.data:xdc_runtime_Error_Module__state__V)
                  20019124    00000030     stk.aem4f : exec.oem4f (.data:tasks)
                  20019154    00000030     tcpEcho_pem4f.oem4f (.data:ti_sysbios_knl_Swi_Object__table__V)
                  20019184    0000002c     tcpEcho_pem4f.oem4f (.data:ti_sysbios_knl_Clock_Module__state__V)
                  200191b0    00000028     stk.aem4f : rtc.oem4f (.data)
                  200191d8    00000024     os.aem4f : ossys.oem4f (.data:_oscfg)
                  200191fc    00000024              : mem.oem4f (.data)
                  20019220    00000024     tcpEcho_pem4f.oem4f (.data:ti_sysbios_BIOS_Module__state__V)
                  20019244    00000020     tcpEcho_pem4f.oem4f (.data:ti_sysbios_family_arm_lm4_Timer_Module_State_0_handles__A)
                  20019264    0000001c     netctrl_min_ipv4.aem4f : netctrl.oem4f (.data)
                  20019280    0000001c     tcpEcho_pem4f.oem4f (.data:ti_ndk_config_Global_Id2Size)
                  2001929c    0000001c     tcpEcho_pem4f.oem4f (.data:ti_sysbios_knl_Swi_Module__state__V)
                  200192b8    00000018     tcpEcho_pem4f.oem4f (.data:TaskName)
                  200192d0    00000018     os.aem4f : task.oem4f (.data)
                  200192e8    00000018     stk.aem4f : sockpcb.oem4f (.data)
                  20019300    00000018     tcpEcho_pem4f.oem4f (.data:ti_sysbios_family_arm_m3_Hwi_Object__table__V)
                  20019318    00000018     tcpEcho_pem4f.oem4f (.data:ti_sysbios_heaps_HeapMem_Object__table__V)
                  20019330    00000014     tcpEcho_pem4f.oem4f (.data:ReportStr)
                  20019344    00000014     tcpEcho_pem4f.oem4f (.data:StatusStr)
                  20019358    00000014     stk.aem4f : rtable.oem4f (.data)
                  2001936c    00000010     EK_TM4C1294XL.obj (.data:gpioPinConfigs)
                  2001937c    00000010     rtsv7M4_T_le_v4SPD16_eabi.lib : defs.c.obj (.data)
                  2001938c    00000010     stk.aem4f : igmp.oem4f (.data)
                  2001939c    0000000c     rtsv7M4_T_le_v4SPD16_eabi.lib : exit.c.obj (.data:$O1$$)
                  200193a8    0000000c     tcpEcho_pem4f.oem4f (.data:ti_sysbios_family_arm_lm4_Timer_Module__state__V)
                  200193b4    0000000c     tcpEcho_pem4f.oem4f (.data:xdc_runtime_SysMin_Module__state__V)
                  200193c0    0000000b     stk.aem4f : tcpout.oem4f (.data)
                  200193cb    00000001     --HOLE--
                  200193cc    00000008     rtsv7M4_T_le_v4SPD16_eabi.lib : _lock.c.obj (.data:$O1$$)
                  200193d4    00000008     EK_TM4C1294XL.obj (.data:NIMUDeviceTable)
                  200193dc    00000008     EK_TM4C1294XL.obj (.data:gpioCallbackFunctions)
                  200193e4    00000008     netctrl_min_ipv4.aem4f : netsrv.oem4f (.data)
                  200193ec    00000008     stk.aem4f : exec.oem4f (.data)
                  200193f4    00000008               : icmp.oem4f (.data)
                  200193fc    00000008               : ip.oem4f (.data)
                  20019404    00000008               : ipin.oem4f (.data)
                  2001940c    00000008               : lli.oem4f (.data)
                  20019414    00000008               : tcp.oem4f (.data)
                  2001941c    00000008               : timer.oem4f (.data)
                  20019424    00000008     tcpEcho_pem4f.oem4f (.data)
                  2001942c    00000008     tcpEcho_pem4f.oem4f (.data:ti_sysbios_family_arm_m3_Hwi_Module__root__V)
                  20019434    00000008     tcpEcho_pem4f.oem4f (.data:ti_sysbios_gates_GateHwi_Module__root__V)
                  2001943c    00000008     tcpEcho_pem4f.oem4f (.data:ti_sysbios_gates_GateMutex_Module__root__V)
                  20019444    00000008     tcpEcho_pem4f.oem4f (.data:ti_sysbios_heaps_HeapMem_Module__root__V)
                  2001944c    00000008     tcpEcho_pem4f.oem4f (.data:ti_sysbios_knl_Clock_Module__root__V)
                  20019454    00000008     tcpEcho_pem4f.oem4f (.data:ti_sysbios_knl_Queue_Module__root__V)
                  2001945c    00000008     tcpEcho_pem4f.oem4f (.data:ti_sysbios_knl_Semaphore_Module__root__V)
                  20019464    00000008     tcpEcho_pem4f.oem4f (.data:ti_sysbios_knl_Swi_Module__root__V)
                  2001946c    00000008     tcpEcho_pem4f.oem4f (.data:ti_sysbios_knl_Task_Module__root__V)
                  20019474    00000008     tcpEcho_pem4f.oem4f (.data:xdc_runtime_Registry_Module__state__V)
                  2001947c    00000008     tcpEcho_pem4f.oem4f (.data:xdc_runtime_Startup_Module__state__V)
                  20019484    00000008     tcpEcho_pem4f.oem4f (.data:xdc_runtime_System_Module_State_0_atexitHandlers__A)
                  2001948c    00000008     tcpEcho_pem4f.oem4f (.data:xdc_runtime_System_Module__state__V)
                  20019494    00000006     EK_TM4C1294XL.obj (.data:macAddress)
                  2001949a    00000006     stk.aem4f : lliout.oem4f (.data)
                  200194a0    00000005     drivers_tivaware.aem4f : GPIOTiva.oem4f (.data)
                  200194a5    00000003     --HOLE--
                  200194a8    00000004                            : EMAC.oem4f (.data)
                  200194ac    00000004     hal_timer_bios.aem4f : lltimer.oem4f (.data)
                  200194b0    00000004     nettool_ipv4.aem4f : config.oem4f (.data)
                  200194b4    00000004     rtsv7M4_T_le_v4SPD16_eabi.lib : errno.c.obj (.data)
                  200194b8    00000004                                   : stkdepth_vars.c.obj (.data)
                  200194bc    00000004                                   : vla_alloc.c.obj (.data)
                  200194c0    00000004     stk.aem4f : bind.oem4f (.data)
                  200194c4    00000004               : ipfrag.oem4f (.data)
                  200194c8    00000004               : lliin.oem4f (.data)
                  200194cc    00000004               : node.oem4f (.data)
                  200194d0    00000004               : pbm.oem4f (.data)
                  200194d4    00000004     tcpEcho_pem4f.oem4f (.data:ti_sysbios_family_arm_m3_Hwi_Module_State_0_excContext__A)
                  200194d8    00000004     tcpEcho_pem4f.oem4f (.data:ti_sysbios_family_arm_m3_Hwi_Module_State_0_excStack__A)
                  200194dc    00000004     tcpEcho_pem4f.oem4f (.data:ti_sysbios_gates_GateHwi_Object__table__V)
                  200194e0    00000004     tcpEcho_pem4f.oem4f (.data:ti_sysbios_knl_Task_Module_State_0_idleTask__A)
                  200194e4    00000004     tcpEcho_pem4f.oem4f (.data:xdc_runtime_Memory_Module__state__V)

.stack     0    200194e8    00000800     UNINITIALIZED
                  200194e8    00000800     --HOLE--

.bootVecs 
*          0    00000000    00000008     DSECT
                  00000000    00000008     boot.aem4f : boot.oem4f (.bootVecs)

.vecs      0    20000000    00000360     UNINITIALIZED
                  20000000    00000360     tcpEcho_pem4f.oem4f (.vecs)

xdc.meta   0    00000000    000000e6     COPY SECTION
                  00000000    000000e6     tcpEcho_pem4f.oem4f (xdc.meta)

__llvm_prf_cnts 
*          0    20000000    00000000     UNINITIALIZED

MODULE SUMMARY

       Module                       code     ro data   rw data
       ------                       ----     -------   -------
    .\
       old_main.obj                 6201     1798      8293   
       sysctl.obj                   1258     596       0      
       gpio.obj                     1178     144       0      
       SST26VF032B.obj              1276     0         4      
       EK_TM4C1294XL.obj            492      60        46     
       ssi.obj                      292      0         0      
       tcpEchoHooks.obj             138      0         0      
    +--+----------------------------+--------+---------+---------+
       Total:                       10835    2598      8343   
                                                              
    .\source\
       ffunicode.obj                716      59806     0      
       ff.obj                       9546     23        518    
       user_diskio.obj              660      0         0      
    +--+----------------------------+--------+---------+---------+
       Total:                       10922    59829     518    
                                                              
    C:\Users\14169\workspace_v10_1\webserver_FS\Debug\configPkg\package\cfg\
       tcpEcho_pem4f.oem4f          3017     8151      91032  
    +--+----------------------------+--------+---------+---------+
       Total:                       3017     8151      91032  
                                                              
    C:/ti/tirtos_tivac_2_16_01_14/products/TivaWare_C_Series-2.1.1.71b/driverlib/ccs/Debug/driverlib.lib
       emac.obj                     756      24        0      
       flash.obj                    20       0         0      
    +--+----------------------------+--------+---------+---------+
       Total:                       776      24        0      
                                                              
    C:/ti/tirtos_tivac_2_16_01_14/products/tidrivers_tivac_2_16_01_13/packages/ti/drivers/lib/drivers_tivaware.aem4f
       EMACSnow.oem4f               2006     8         406    
       GPIOTiva.oem4f               684      156       153    
       EMAC.oem4f                   52       0         4      
    +--+----------------------------+--------+---------+---------+
       Total:                       2742     164       563    
                                                              
    C:\Users\14169\workspace_v10_1\webserver_FS\src\sysbios\sysbios.aem4f
       BIOS.obj                     10106    0         0      
       m3_Hwi_asm.obj               314      0         0      
       m3_TaskSupport_asm.obj       180      0         0      
       m3_Hwi_asm_switch.obj        118      0         0      
    +--+----------------------------+--------+---------+---------+
       Total:                       10718    0         0      
                                                              
    C:\ti\ccs1031\ccs\tools\compiler\ti-cgt-arm_20.2.4.LTS\lib\rtsv7M4_T_le_v4SPD16_eabi.lib
       _printfi.c.obj               4851     0         0      
       _scanfi.c.obj                2800     16        0      
       strtod.c.obj                 1120     200       0      
       vla_alloc.c.obj              564      0         4      
       strtoll.c.obj                476      0         0      
       fd_add_t2.asm.obj            438      0         0      
       defs.c.obj                   0        0         416    
       trgmsg.c.obj                 108      0         288    
       strtoull.c.obj               348      0         0      
       fd_div_t2.asm.obj            310      0         0      
       strtol.c.obj                 304      0         0      
       fputs.c.obj                  276      0         0      
       s_scalbn.c.obj               272      0         0      
       strtoul.c.obj                272      0         0      
       fd_cmp_t2.asm.obj            268      0         0      
       ctype.c.obj                  0        257       0      
       fd_mul_t2.asm.obj            252      0         0      
       setvbuf.c.obj                220      0         0      
       host_device.c.obj            0        0         200    
       perror.c.obj                 200      0         0      
       sscanf.c.obj                 186      0         0      
       memcpy_t2.asm.obj            156      0         0      
       ull_div_t2.asm.obj           150      0         0      
       snprintf.c.obj               148      0         0      
       fputc.c.obj                  140      0         0      
       memset_t2.asm.obj            122      0         0      
       fclose.c.obj                 116      0         0      
       getdevice.c.obj              116      0         0      
       fd_tos_t2.asm.obj            110      0         0      
       hostrename.c.obj             108      0         0      
       copy_decompress_lzss.c.obj   104      0         0      
       hostlseek.c.obj              104      0         0      
       hostopen.c.obj               96       0         8      
       fseek.c.obj                  100      0         0      
       s_frexp.c.obj                100      0         0      
       _io_perm.c.obj               98       0         0      
       close.c.obj                  92       0         0      
       exit.c.obj                   76       0         12     
       hostread.c.obj               88       0         0      
       hostwrite.c.obj              88       0         0      
       _ltoa.c.obj                  84       0         0      
       atoi.c.obj                   76       0         0      
       cpy_tbl.c.obj                76       0         0      
       fflush.c.obj                 76       0         0      
       fd_toi_t2.asm.obj            72       0         0      
       hostclose.c.obj              68       0         0      
       hostunlink.c.obj             68       0         0      
       u_divt2.asm.obj              64       0         0      
       strncpy.c.obj                54       0         0      
       fopen.c.obj                  52       0         0      
       strstr.c.obj                 52       0         0      
       i_tofd_t2.asm.obj            46       0         0      
       strncmp.c.obj                44       0         0      
       unlink.c.obj                 44       0         0      
       lseek.c.obj                  40       0         0      
       write.c.obj                  40       0         0      
       memcmp.c.obj                 36       0         0      
       _lock.c.obj                  26       0         8      
       memchr.c.obj                 32       0         0      
       memccpy.c.obj                28       0         0      
       s_copysign.c.obj             26       0         0      
       args_main.c.obj              24       0         0      
       ll_mul_t2.asm.obj            24       0         0      
       strcmp.c.obj                 24       0         0      
       strrchr.c.obj                24       0         0      
       strchr.c.obj                 22       0         0      
       strcpy.c.obj                 20       0         0      
       strlen.c.obj                 20       0         0      
       wcslen.c.obj                 18       0         0      
       copy_decompress_none.c.obj   14       0         0      
       copy_zero_init.c.obj         12       0         0      
       errno.c.obj                  8        0         4      
       error.c.obj                  4        0         0      
       stkdepth_vars.c.obj          0        0         4      
       div0.asm.obj                 2        0         0      
    +--+----------------------------+--------+---------+---------+
       Total:                       16697    473       944    
                                                              
    C:\ti\tirtos_tivac_2_16_01_14\products\bios_6_45_02_31\packages\ti\catalog\arm\cortexm4\tiva\ce\lib\Boot.aem4f
       Boot_sysctl.oem4f            628      452       0      
       Boot.oem4f                   152      0         0      
    +--+----------------------------+--------+---------+---------+
       Total:                       780      452       0      
                                                              
    C:\ti\tirtos_tivac_2_16_01_14\products\bios_6_45_02_31\packages\ti\targets\arm\rtsarm\lib\auto_init.aem4f
       auto_init.oem4f              160      0         0      
    +--+----------------------------+--------+---------+---------+
       Total:                       160      0         0      
                                                              
    C:\ti\tirtos_tivac_2_16_01_14\products\bios_6_45_02_31\packages\ti\targets\arm\rtsarm\lib\boot.aem4f
       boot.oem4f                   88       0         0      
    +--+----------------------------+--------+---------+---------+
       Total:                       88       0         0      
                                                              
    C:\ti\tirtos_tivac_2_16_01_14\products\bios_6_45_02_31\packages\ti\targets\arm\rtsarm\lib\ti.targets.arm.rtsarm.aem4f
       System.oem4f                 1277     0         0      
       Text.oem4f                   672      0         0      
       Error.oem4f                  528      0         0      
       Core-mem.oem4f               358      0         0      
       Startup.oem4f                328      0         0      
       SysMin.oem4f                 248      0         0      
       Core-smem.oem4f              204      0         0      
       Memory.oem4f                 176      0         0      
       Assert.oem4f                 84       0         0      
       Core-params.oem4f            70       0         0      
       Core-label.oem4f             52       0         0      
       Registry.oem4f               32       0         0      
       Gate.oem4f                   28       0         0      
       xdc_noinit.oem4f             6        0         0      
    +--+----------------------------+--------+---------+---------+
       Total:                       4063     0         0      
                                                              
    C:\ti\tirtos_tivac_2_16_01_14\products\ndk_2_25_00_09\packages\ti\ndk\hal\ser_stub\lib\hal_ser_stub.aem4f
       llserstb.oem4f               10       0         0      
    +--+----------------------------+--------+---------+---------+
       Total:                       10       0         0      
                                                              
    C:\ti\tirtos_tivac_2_16_01_14\products\ndk_2_25_00_09\packages\ti\ndk\hal\timer_bios\lib\hal_timer_bios.aem4f
       lltimer.oem4f                252      0         28     
    +--+----------------------------+--------+---------+---------+
       Total:                       252      0         28     
                                                              
    C:\ti\tirtos_tivac_2_16_01_14\products\ndk_2_25_00_09\packages\ti\ndk\hal\userled_stub\lib\hal_userled_stub.aem4f
       llled.oem4f                  6        0         0      
    +--+----------------------------+--------+---------+---------+
       Total:                       6        0         0      
                                                              
    C:\ti\tirtos_tivac_2_16_01_14\products\ndk_2_25_00_09\packages\ti\ndk\netctrl\lib\netctrl_min_ipv4.aem4f
       netsrv.oem4f                 1122     0         352    
       netctrl.oem4f                884      0         60     
    +--+----------------------------+--------+---------+---------+
       Total:                       2006     0         412    
                                                              
    C:\ti\tirtos_tivac_2_16_01_14\products\ndk_2_25_00_09\packages\ti\ndk\nettools\lib\nettool_ipv4.aem4f
       config.oem4f                 1760     0         4      
       dhcpsm.oem4f                 1028     0         0      
       dhcpbild.oem4f               508      0         0      
       dhcppkt.oem4f                462      0         0      
       dhcpmain.oem4f               406      0         0      
       dhcptags.oem4f               264      0         77     
       dhcpsock.oem4f               332      0         0      
       ipaddr.oem4f                 190      0         4      
    +--+----------------------------+--------+---------+---------+
       Total:                       4950     0         85     
                                                              
    C:\ti\tirtos_tivac_2_16_01_14\products\ndk_2_25_00_09\packages\ti\ndk\os\lib\os.aem4f
       mem.oem4f                    1312     0         148    
       task.oem4f                   1054     0         24     
       semaphore.oem4f              226      0         0      
       ossys.oem4f                  140      0         36     
    +--+----------------------------+--------+---------+---------+
       Total:                       2732     0         208    
                                                              
    C:\ti\tirtos_tivac_2_16_01_14\products\ndk_2_25_00_09\packages\ti\ndk\stack\lib\stk.aem4f
       tcpin.oem4f                  3312     0         0      
       sock.oem4f                   3010     0         0      
       tcpout.oem4f                 2608     0         11     
       igmp.oem4f                   1584     0         308    
       nimu.oem4f                   1549     0         100    
       sockpcb.oem4f                1422     0         24     
       rtable.oem4f                 1138     0         24     
       tcpprot.oem4f                1118     0         0      
       node.oem4f                   1079     0         4      
       ipout.oem4f                  1032     0         0      
       udp.oem4f                    968      0         48     
       ipin.oem4f                   998      0         8      
       tcptime.oem4f                821      0         52     
       socket.oem4f                 828      0         0      
       sb.oem4f                     826      0         0      
       icmpin.oem4f                 756      0         0      
       icmp.oem4f                   580      0         160    
       ipfrag.oem4f                 712      0         4      
       rtc.oem4f                    592      62        60     
       sockint.oem4f                704      0         0      
       route.oem4f                  702      0         0      
       lliout.oem4f                 672      0         6      
       tcp.oem4f                    472      0         204    
       lli.oem4f                    652      0         8      
       bind.oem4f                   650      0         4      
       lliin.oem4f                  592      0         4      
       pbm.oem4f                    574      0         16     
       exec.oem4f                   302      0         236    
       rawethsock.oem4f             536      0         0      
       ip.oem4f                     378      0         120    
       vlan.oem4f                   396      0         40     
       raw.oem4f                    400      0         16     
       pipe.oem4f                   410      0         0      
       file.oem4f                   398      0         0      
       fileuser.oem4f               312      0         0      
       timer.oem4f                  258      0         8      
       raweth.oem4f                 224      0         16     
       rawethsock_pcb.oem4f         236      0         4      
       sockprot.oem4f               98       84        0      
       listlib.oem4f                110      0         0      
       rawethsock_prot.oem4f        8        0         0      
       nat.oem4f                    2        0         0      
    +--+----------------------------+--------+---------+---------+
       Total:                       34019    146       1485   
                                                              
       Stack:                       0        0         2048   
       Linker Generated:            0        1038      0      
    +--+----------------------------+--------+---------+---------+
       Grand Total:                 104773   72875     105666 


LINKER GENERATED COPY TABLES

__TI_cinit_table @ 0002b680 records: 3, size/record: 8, table size: 24
	.data: load addr=0002b288, load size=000003da bytes, run addr=20018ab8, run size=00000a30 bytes, compression=lzss
	.bss: load addr=0002b670, load size=00000008 bytes, run addr=20000380, run size=00018737 bytes, compression=zero_init
	.vecs: load addr=0002b678, load size=00000008 bytes, run addr=20000000, run size=00000360 bytes, compression=zero_init


LINKER GENERATED HANDLER TABLE

__TI_handler_table @ 0002b664 records: 3, size/record: 4, table size: 12
	index: 0, handler: __TI_decompress_lzss
	index: 1, handler: __TI_decompress_none
	index: 2, handler: __TI_zero_init


GLOBAL SYMBOLS: SORTED ALPHABETICALLY BY Name 

address   name                                                                 
-------   ----                                                                 
00018441  BindFindByHost                                                       
00018c65  BindFindByIF                                                         
00018091  BindFindByNet                                                        
00014961  BindFree                                                             
00019799  BindGetFirst                                                         
00006d95  BindGetIF                                                            
00018465  BindGetIFByDBCast                                                    
00018e9d  BindGetIP                                                            
0000897d  BindGetNext                                                          
000195f9  BindIF2IPHost                                                        
00019609  BindIFNet2IPHost                                                     
000193a5  BindIPHost2IF                                                        
00009b51  BindNew                                                              
2001895c  BlockCount                                                           
20018978  BlockMax                                                             
00012bfd  C$$EXIT                                                              
00016e47  C$$IO$$                                                              
00009dd5  CfgAddEntry                                                          
00014d81  CfgEntryDeRef                                                        
00016975  CfgEntryGetData                                                      
000182e9  CfgEntryInfo                                                         
0001885d  CfgEntryRef                                                          
00010641  CfgExecute                                                           
00013831  CfgFree                                                              
0001112d  CfgGetEntry                                                          
00013e11  CfgGetEntryCnt                                                       
00017539  CfgGetImmediate                                                      
00011acd  CfgGetNextEntry                                                      
000158bf  CfgNew                                                               
000103ed  CfgRemoveEntry                                                       
000197a5  CfgSetDefault                                                        
0001428d  CfgSetExecuteOrder                                                   
000170ed  CfgSetService                                                        
00018c81  Clock_Init                                                           
0002aba0  Code2Err                                                             
000167c1  DHCPClose                                                            
000094c1  DHCPOpen                                                             
00012fe9  DbgPrintf                                                            
0000a79d  EK_TM4C1294XL_initEMAC                                               
00019955  EK_TM4C1294XL_initGPIO                                               
0000efd5  EK_TM4C1294XL_initGeneral                                            
0001776b  EMACAddrSet                                                          
00016cc9  EMACConfigGet                                                        
00017121  EMACConfigSet                                                        
00019619  EMACFrameFilterSet                                                   
00012115  EMACInit                                                             
00017155  EMACIntClear                                                         
000169b1  EMACIntDisable                                                       
00016c8d  EMACIntEnable                                                        
00017c4b  EMACIntStatus                                                        
00014a11  EMACPHYConfigSet                                                     
0001830f  EMACPHYRead                                                          
00018335  EMACPHYWrite                                                         
000192c9  EMACReset                                                            
000176fb  EMACRxDMADescriptorListSet                                           
000192df  EMACRxEnable                                                         
0000e6c9  EMACSnow_InitDMADescriptors                                          
00007339  EMACSnow_NIMUInit                                                    
00017189  EMACSnow_emacPoll                                                    
00019029  EMACSnow_emacSend                                                    
0000bec5  EMACSnow_emacStart                                                   
000115d1  EMACSnow_emacStop                                                    
00019749  EMACSnow_emacioctl                                                   
0002b0f0  EMACSnow_fxnTable                                                    
00011b49  EMACSnow_hwiIntFxn                                                   
000197b1  EMACSnow_init                                                        
000171bd  EMACSnow_isLinkUp                                                    
00018489  EMACSnow_pkt_service                                                 
000111b1  EMACSnow_processPhyInterrupt                                         
00017733  EMACTxDMADescriptorListSet                                           
0001995d  EMACTxDMAPollDemand                                                  
000192f5  EMACTxEnable                                                         
0002afd0  EMAC_config                                                          
000171f1  EMAC_init                                                            
00017225  ExecClose                                                            
00019629  ExecHRef                                                             
00019757  ExecLowResource                                                      
0000fe89  ExecOpen                                                             
000184d1  ExecTimer                                                            
00017c77  FdSignalEvent                                                        
00013e71  FdWaitEvent                                                          
000193b9  FlashUserGet                                                         
000142e9  GPIODirModeSet                                                       
000193cd  GPIOIntClear                                                         
0001887f  GPIOIntStatus                                                        
0000f8e5  GPIOIntTypeSet                                                       
00005571  GPIOPadConfigSet                                                     
00013489  GPIOPinConfigure                                                     
000184f5  GPIOPinTypeEthernetLED                                               
00018519  GPIOPinTypeGPIOOutput                                                
0001853d  GPIOPinTypeSSI                                                       
0001894d  GPIOPinWrite                                                         
0002b078  GPIOTiva_config                                                      
00013895  GPIO_hwiIntFxn                                                       
000109a1  GPIO_init                                                            
0001511d  GPIO_setCallback                                                     
00009619  GPIO_setConfig                                                       
000177cd  GlobalWriteProtectUnlock                                             
00015ee5  HOSTclose                                                            
000134f1  HOSTlseek                                                            
00013ed1  HOSTopen                                                             
00014a69  HOSTread                                                             
00013055  HOSTrename                                                           
00015f29  HOSTunlink                                                           
00014ac1  HOSTwrite                                                            
00015f6d  ICMPChecksum                                                         
0000a539  ICMPGenPacket                                                        
00005efd  ICMPInput                                                            
0000de15  ICMPSendRtAdv                                                        
00007d45  IGMPInput                                                            
00011c41  IGMPJoin                                                             
00014dd5  IGMPLeave                                                            
0001254d  IGMPLeaveHostGroup                                                   
000106d1  IGMPMsg                                                              
00017ca5  IGMPTestGroup                                                        
00017049  IPChecksum                                                           
0000fa2d  IPGetRoute                                                           
00010a2d  IPMsg                                                                
00005cb1  IPReasm                                                              
00015fb1  IPReasmFree                                                          
00016d01  IPReasmTimeout                                                       
00019041  IPRtChange                                                           
00004085  IPRxPacket                                                           
000038e9  IPTxPacket                                                           
000021e7  LED_TOGGLE                                                           
000180b9  LLIFree                                                              
0000cd91  LLIGenArpPacket                                                      
00015ff5  LLIGetValidTime                                                      
00015909  LLIMsg                                                               
000116d1  LLINew                                                               
00007859  LLIRxPacket                                                          
000076a9  LLITxIpPacket                                                        
00016501  LLIValidateRoute                                                     
00018cb9  Led_Init                                                             
000177fd  LockBPR                                                              
0001896d  NC_BootComplete                                                      
00019639  NC_IPUpdate                                                          
00008809  NC_NetStart                                                          
000193e1  NC_NetStop                                                           
000180e1  NC_SystemClose                                                       
0001005d  NC_SystemOpen                                                        
000128eb  NDK_accept                                                           
0001516d  NDK_bind                                                             
00017cd1  NDK_hookCreate                                                       
000193f5  NDK_hookExit                                                         
000197bd  NDK_hookInit                                                         
000163f9  NDK_listen                                                           
00012c71  NDK_recv                                                             
0001295b  NDK_send                                                             
0001218d  NDK_sendto                                                           
00011cbd  NDK_setsockopt                                                       
00013559  NDK_socket                                                           
00018cd5  NDK_sprintf                                                          
0000909d  NDK_vsprintf                                                         
0000fcad  NIMUAddEthernetHeader                                                
00018cf1  NIMUAddHeader                                                        
00018109  NIMUCreatePacket                                                     
200193d4  NIMUDeviceTable                                                      
00018561  NIMUFindByIndex                                                      
00017259  NIMUFindByName                                                       
00019649  NIMUGetRsvdSizeInfo                                                  
0001728d  NIMUInit                                                             
0000b53d  NIMUIoctl                                                            
00018131  NIMUPacketService                                                    
00017d29  NIMUPacketServiceCheck                                               
0000dc75  NIMUReceivePacket                                                    
00011d39  NIMURegister                                                         
00019409  NIMUSendPacket                                                       
000197c9  NIMUSetRsvdSizeInfo                                                  
000125c1  NIMUShutdown                                                         
00013f31  NIMUUnregister                                                       
00011751  NS_BootTask                                                          
0001782d  NS_PreBoot                                                           
0000556f  NatMsg                                                               
0000d845  NodeAdd                                                              
000153f1  NodeDeRef                                                            
00013f91  NodeFind                                                             
00016d39  NodeGetRt                                                            
00009a05  NodeSetRt                                                            
0000b765  NodeTreeFree                                                         
000130c1  NodeTreeNew                                                          
00015951  NodeWalk                                                             
000197d5  NotifyLowResource                                                    
000154dd  NtAddNetwork                                                         
00015d41  NtIfIdx2Ip                                                           
0001941d  NtRemoveNetwork                                                      
000199c1  OEMSysCritOff                                                        
00019869  OEMSysCritOn                                                         
00017f95  PBMQ_deq                                                             
000138f9  PBMQ_enq                                                             
20011474  PBMQ_free                                                            
000117d1  PBM_alloc                                                            
000197e1  PBM_close                                                            
00016541  PBM_copy                                                             
00011db5  PBM_free                                                             
000135c1  PBM_open                                                             
200191fc  PITCount                                                             
20019204  PITHigh                                                              
20019200  PITUsed                                                              
20018994  PageCount                                                            
200189b0  PageMax                                                              
0000e851  PageProgram                                                          
00017d55  PipeClose                                                            
0000c6d9  PipeRecv                                                             
0001245d  PipeSend                                                             
00018585  RTCAddHook                                                           
00013ff1  RTCMsg                                                               
000189ad  RTCRemoveHook                                                        
00008af5  RTCReport                                                            
00012635  RawEthRxPacket                                                       
0001835b  RawEthSockClose                                                      
0000e2dd  RawEthSockNew                                                        
000172c1  RawEthSockNotify                                                     
00014e29  RawEthSockPcbAttach                                                  
00019059  RawEthSockPcbCleanup                                                 
00015999  RawEthSockPcbDetach                                                  
000185a9  RawEthSockPcbFind                                                    
00019431  RawEthSockPcbInit                                                    
0000a2c5  RawEthSockPrAttach                                                   
0000bfcd  RawEthSockPrDetach                                                   
00015d87  RawEthSockSend                                                       
0000f587  RawEthSockSet                                                        
0001312d  RawEthTxPacket                                                       
0000b875  RawInput                                                             
00011851  RawOutput                                                            
00016581  ReadConfig                                                           
0000e3a5  ReadFlash                                                            
000126a9  ReadJEDECID                                                          
000165c1  ReadStatus                                                           
00016039  RouteMsg                                                             
0000bcb1  RtCreate                                                             
0001756b  RtDeRef                                                              
0000bba5  RtFind                                                               
0001479d  RtRedirect                                                           
00014171  RtRemove                                                             
0001759d  RtSetFailure                                                         
000185f1  RtSetTimeout                                                         
00016a29  RtWalkBegin                                                          
0001607d  RtWalkEnd                                                            
00012ce1  RtWalkNext                                                           
000175cf  SBFlush                                                              
00017bc1  SBFree                                                               
00013d4d  SBNew                                                                
00008c65  SBRead                                                               
00017601  SBSetMax                                                             
0000d4d5  SBWrite                                                              
UNDEFED   SHT$$INIT_ARRAY$$Base                                                
UNDEFED   SHT$$INIT_ARRAY$$Limit                                               
0000facd  SPI_Init                                                             
00018bb1  SSIBusy                                                              
00011fa5  SSIConfigSetExpClk                                                   
00018d0d  SSIDataGet                                                           
000188a1  SSIDataGetNonBlocking                                                
00018eb7  SSIDataPut                                                           
0001930b  SSIEnable                                                            
00018bcf  SSIIntStatus                                                         
00011e31  SectorErase                                                          
00014b71  SemCreate                                                            
00012879  SemCreateBinary                                                      
000197ed  SemDelete                                                            
0000db9d  SemPend                                                              
0000e5fd  SemPost                                                              
0000ed95  SemReset                                                             
0001201f  SockAccept                                                           
0001785d  SockBind                                                             
00014e7d  SockCleanPcb                                                         
0000ce81  SockClose                                                            
00009205  SockConnect                                                          
0000f83d  SockCreatePacket                                                     
0001582b  SockDisconnect                                                       
0001788d  SockGetName                                                          
00017633  SockIntAbort                                                         
00013629  SockListen                                                           
00008071  SockNew                                                              
00009f11  SockNotify                                                           
00017d81  SockPcbAttach                                                        
0000dac9  SockPcbBind                                                          
00018615  SockPcbCleanup                                                       
0001271d  SockPcbConnect                                                       
00010f11  SockPcbCtlError                                                      
000160c1  SockPcbDetach                                                        
0000ac49  SockPcbResolve                                                       
000159e1  SockPcbResolveChain                                                  
00016601  SockPcbRtChange                                                      
00019561  SockPrAttach                                                         
000172f5  SockPrCtlError                                                       
00018d29  SockPrDetach                                                         
00006ba1  SockRecv                                                             
0000a04d  SockSend                                                             
00005069  SockSet                                                              
00019573  SockSetOOBData                                                       
00018ed1  SockSetOOBMark                                                       
00012aad  SockShutdown                                                         
0001395d  SockSpawnAbort                                                       
00015529  SockValidateRoute                                                    
00004ab5  SysCtlClockFreqSet                                                   
000195ab  SysCtlDelay                                                          
00016641  SysCtlPeripheralEnable                                               
00016105  SysCtlPeripheralReady                                                
00010ab9  SysCtlPeripheralReset                                                
00017dad  TEST_spi_init                                                        
0001996d  TaskBlock                                                            
0001683f  TaskCreate                                                           
00018d45  TaskDestroy                                                          
0000ef19  TaskExit                                                             
0000c9c1  TaskGetEnv                                                           
0000ee55  TaskSelf                                                             
0000d05d  TaskSetEnv                                                           
0000ef15  TaskSetPri                                                           
0000e601  TaskSleep                                                            
00014051  TcpChecksum                                                          
00016d71  TcpClose                                                             
00015a29  TcpDrop                                                              
0000b1f5  TcpGenPacket                                                         
00000041  TcpInput                                                             
000021e9  TcpOutput                                                            
00011235  TcpPrAttach                                                          
00016a65  TcpPrConnect                                                         
00015dcd  TcpPrCtlError                                                        
00015079  TcpPrDetach                                                          
0001687d  TcpPrDisconnect                                                      
000133b5  TcpPrInherit                                                         
00018639  TcpPrListen                                                          
00019773  TcpPrRecv                                                            
00016681  TcpPrSend                                                            
0001643b  TcpPrSendOOB                                                         
0000d91d  TcpPrSetOption                                                       
00016aa1  TcpSetPersist                                                        
00019149  TcpTimeoutAdd                                                        
00009c95  TcpTimeoutCheck                                                      
0000f36d  TcpTimeoutKeep                                                       
00014ed1  TcpTimeoutPersist                                                    
000189cd  TcpTimeoutRemove                                                     
0000d315  TcpTimeoutRexmt                                                      
000124d5  TcpTimeoutSackRexmt                                                  
0001865d  TcpTimeoutWait2                                                      
000147f7  TcpValidateMetrics                                                   
00012205  TcpXmitTimer                                                         
00019445  TimerFree                                                            
00016da9  TimerHSTick                                                          
00015875  TimerNew                                                             
00013199  UdpChecksum                                                          
00006139  UdpInput                                                             
0000ad6d  UdpOutput                                                            
0000ecd9  VLANDeinit                                                           
000181d1  VLANInit                                                             
0001422d  VLANReceivePacket                                                    
00016de1  WriteEnable                                                          
20011428  _ICMPIn                                                              
200193f4  _ICMPInErrors                                                        
20018860  _ICMPOut                                                             
200193f8  _ICMPOutErrors                                                       
20019394  _IGMPForceVersion1                                                   
20018a74  _IGMPInDiscard                                                       
20018a78  _IGMPInQuery                                                         
20018a7c  _IGMPInQueryGroup                                                    
20018a80  _IGMPInResponse                                                      
20018a84  _IGMPOutResponse                                                     
200193fc  _IPExecuting                                                         
200194c4  _IPReasmPtr                                                          
00015a71  _LLIExpListInsert                                                    
00017dd9  _LLIExpListRemove                                                    
0000f145  _LLITimeoutCheck                                                     
00017e05  _LLITimeoutFlush                                                     
00015ab9  _RtExpListInsert                                                     
00017e31  _RtExpListRemove                                                     
00013691  _RtNodeInsert                                                        
00016b19  _RtNodeRemove                                                        
000076a7  _TaskInit                                                            
00007ba7  _TaskShutdown                                                        
00000000  __ASM__                                                              
20018138  __CIOBUF_                                                            
00000064  __ISA__                                                              
00000077  __PLAT__                                                             
20019ce8  __STACK_END                                                          
00000800  __STACK_SIZE                                                         
00000098  __TARG__                                                             
0002b680  __TI_CINIT_Base                                                      
0002b698  __TI_CINIT_Limit                                                     
0002b664  __TI_Handler_Table_Base                                              
0002b670  __TI_Handler_Table_Limit                                             
0000fb6d  __TI_auto_init                                                       
00017329  __TI_cleanup                                                         
2001939c  __TI_cleanup_ptr                                                     
00012791  __TI_closefile                                                       
00013761  __TI_decompress_lzss                                                 
00019765  __TI_decompress_none                                                 
00015575  __TI_doflush                                                         
200193a0  __TI_dtors_ptr                                                       
200193a4  __TI_enable_exit_profile_output                                      
2001937c  __TI_ft_end                                                          
00014f25  __TI_ltoa                                                            
ffffffff  __TI_pprof_out_hndl                                                  
00001799  __TI_printfi                                                         
ffffffff  __TI_prof_data_size                                                  
ffffffff  __TI_prof_data_start                                                 
0001735d  __TI_readmsg                                                         
00000ca9  __TI_scanfi                                                          
0002b288  __TI_static_base__                                                   
200184c4  __TI_tmpnams                                                         
00016e19  __TI_writemsg                                                        
00013daf  __TI_wrt_ok                                                          
00019829  __TI_zero_init                                                       
000000be  __TRDR__                                                             
00010225  __abort_execution                                                    
0001101f  __aeabi_cdcmpeq                                                      
0001101f  __aeabi_cdcmple                                                      
000110a5  __aeabi_cdrcmple                                                     
00012e2b  __aeabi_d2f                                                          
00015b91  __aeabi_d2iz                                                         
000074fb  __aeabi_dadd                                                         
0000a401  __aeabi_ddiv                                                         
0000c5dd  __aeabi_dmul                                                         
000074f1  __aeabi_dsub                                                         
00019975  __aeabi_errno_addr                                                   
00017c1d  __aeabi_i2d                                                          
0000cd8f  __aeabi_idiv0                                                        
0000cd8f  __aeabi_ldiv0                                                        
000191c1  __aeabi_lmul                                                         
00012099  __aeabi_memclr                                                       
00012099  __aeabi_memclr4                                                      
00012099  __aeabi_memclr8                                                      
0000ff25  __aeabi_memcpy                                                       
0000ff25  __aeabi_memcpy4                                                      
0000ff25  __aeabi_memcpy8                                                      
0001209b  __aeabi_memset                                                       
0001209b  __aeabi_memset4                                                      
0001209b  __aeabi_memset8                                                      
20019388  __aeabi_stderr                                                       
20019380  __aeabi_stdin                                                        
20019384  __aeabi_stdout                                                       
00016701  __aeabi_uidiv                                                        
00016701  __aeabi_uidivmod                                                     
00010357  __aeabi_uldivmod                                                     
ffffffff  __binit__                                                            
ffffffff  __c_args__                                                           
200194e8  __stack                                                              
20000000  __start___llvm_prf_cnts                                              
20000000  __stop___llvm_prf_cnts                                               
000098b9  __vla_alloc                                                          
00012b1d  __vla_dealloc                                                        
000199b1  __xdc__init                                                          
20019428  __xdc__init__addr                                                    
00019161  _args_main                                                           
000149b9  _c_int00                                                             
0002a508  _ctypes_                                                             
20018df4  _device                                                              
20018ab8  _ftable                                                              
20018ba8  _ipcfg                                                               
00010515  _llSerialInit                                                        
0000806f  _llSerialServiceCheck                                                
00008807  _llSerialShutdown                                                    
00016b55  _llTimerInit                                                         
000197f9  _llTimerShutdown                                                     
00008dcf  _llUserLedInit                                                       
0000a537  _llUserLedShutdown                                                   
200193cc  _lock                                                                
00010b45  _mmInit                                                              
0000ab1f  _nop                                                                 
200191d8  _oscfg                                                               
00019805  _register_lock                                                       
00019811  _register_unlock                                                     
20018e6c  _stream                                                              
200193d0  _unlock                                                              
00012bfd  abort                                                                
000155c1  atoi                                                                 
0000b0d9  b64_encode                                                           
0001647d  b64_encoded_size                                                     
ffffffff  binit                                                                
20018a88  br                                                                   
20018a8c  bw                                                                   
000143fd  close                                                                
0001560d  copy_in                                                              
00018eeb  copysign                                                             
00018eeb  copysignl                                                            
00014851  dhcpBuildDecline                                                     
00016e51  dhcpBuildDiscover                                                    
000140b1  dhcpBuildOptions                                                     
0000fd4b  dhcpBuildRequest                                                     
00012b8d  dhcpDecodeType                                                       
00016e89  dhcpOptionsClear                                                     
0000c1dd  dhcpPacketProcess                                                    
000181f9  dhcpPacketReceive                                                    
0001791d  dhcpPacketSend                                                       
00019191  dhcpSocketClose                                                      
0000d5b1  dhcpSocketOpen                                                       
0000d68d  dhcpState                                                            
0000e079  dhcpVerifyMessage                                                    
0002b0b0  emacHWAttrs                                                          
20018a40  emacObjects                                                          
200190f0  enablePrefetch                                                       
200194b4  errno                                                                
00015b01  exit                                                                 
000176c9  f_close                                                              
000112b9  f_mount                                                              
00004db5  f_open                                                               
00006371  f_read                                                               
0000e145  f_sync                                                               
000052ed  f_write                                                              
000119d1  fdClose                                                              
000164bf  fdCloseSession                                                       
000122f5  fdOpenSession                                                        
00019321  fdint_freefdt                                                        
00018f05  fdint_getfdt                                                         
00015b49  fdint_lockfd                                                         
0001992d  fdint_signalevent                                                    
00019937  fdint_signaltimeout                                                  
000168f9  fdint_unlockfd                                                       
00016ec1  fdint_waitevent                                                      
0000f6e5  ff_oem2uni                                                           
0000f1fd  ff_uni2oem                                                           
00008dd1  ff_wtoupper                                                          
200163ac  file                                                                 
0001794d  finddevice                                                           
00008f39  flash_init                                                           
00010bd1  fputc                                                                
0000b651  fputs                                                                
00018f1f  free                                                                 
000139c1  frexp                                                                
000139c1  frexpl                                                               
20015378  fs                                                                   
00013a25  fseek                                                                
20018a90  g_ulStatus                                                           
000161d1  getdevice                                                            
200193dc  gpioCallbackFunctions                                                
2001936c  gpioPinConfigs                                                       
00006591  handle_websocket_handshake                                           
20018794  ips                                                                  
0000b985  ldexp                                                                
0000b985  ldexpl                                                               
000166c1  led_blink                                                            
000191a9  list_add                                                             
00013aed  list_get_head                                                        
00013c1d  list_get_next                                                        
00018bed  list_remove                                                          
0001797d  list_remove_node                                                     
0000c0d9  llEnter                                                              
0001236d  llExit                                                               
0000c2df  llSerialService                                                      
00019835  llTimerGetStartTime                                                  
00016215  llTimerGetTime                                                       
00013a89  llTimerTick                                                          
00018221  lseek                                                                
20019494  macAddress                                                           
0000ab21  main                                                                 
200194b8  main_func_sp                                                         
00017bef  malloc                                                               
00018f1f  mem_Free                                                             
00018d7d  memccpy                                                              
00018a0d  memchr                                                               
000186a5  memcmp                                                               
0000ff25  memcpy                                                               
000120a1  memset                                                               
00007ba9  mmAlloc                                                              
000107f1  mmBulkAlloc                                                          
0001133d  mmBulkFree                                                           
000148ab  mmCopy                                                               
000113c1  mmFree                                                               
00015e13  mmZeroInit                                                           
00014459  mount                                                                
00012805  netOpenHook                                                          
200187fc  nimu_mcb                                                             
000196e9  osi_TaskDisable                                                      
00019689  osi_start                                                            
20018a48  parmbuf                                                              
0000e535  perror                                                               
200190f4  phyCounter                                                           
200191b0  pstrMsgName                                                          
20019418  ptTimeFirst                                                          
00010bd1  putc                                                                 
20018aa4  raweth_pcb                                                           
20018a08  raweths                                                              
20018a18  raws                                                                 
00016937  realloc                                                              
00017f3d  remove                                                               
0000b985  scalbn                                                               
0000b985  scalbnl                                                              
00008519  send_file_web                                                        
0000cc9d  send_websocket_frame                                                 
0000d769  setvbuf                                                              
00008201  sha1_final                                                           
000123e5  sha1_init                                                            
00005a51  sha1_transform                                                       
00012e99  sha1_update                                                          
00015659  snprintf                                                             
00016ef9  sscanf                                                               
200189cc  stkEvent                                                             
00019337  strchr                                                               
000191d9  strcmp                                                               
00019495  strcpy                                                               
000194a9  strlen                                                               
00017e89  strncmp                                                              
000170b5  strncpy                                                              
000191f1  strrchr                                                              
000173c5  strstr                                                               
00003059  strtod                                                               
0000a66d  strtol                                                               
00003059  strtold                                                              
00006f8d  strtoll                                                              
0000ba95  strtoul                                                              
00009365  strtoull                                                             
00006799  tcpHandler                                                           
00002aa1  tcpWorker                                                            
20019414  tcp_iss                                                              
20018358  tcps                                                                 
0002a7ac  ti_catalog_arm_cortexm4_tiva_ce_Boot_A_mustNotUseEnhancedClockMode__C
0002b130  ti_catalog_arm_cortexm4_tiva_ce_Boot_Module__diagsEnabled__C         
0002b134  ti_catalog_arm_cortexm4_tiva_ce_Boot_Module__diagsIncluded__C        
0002b138  ti_catalog_arm_cortexm4_tiva_ce_Boot_Module__diagsMask__C            
0002a0be  ti_catalog_arm_cortexm4_tiva_ce_Boot_Module__id__C                   
000195e9  ti_catalog_arm_cortexm4_tiva_ce_Boot_init__I                         
0000699d  ti_catalog_arm_cortexm4_tiva_ce_Boot_sysCtlClockFreqSetI__I          
0001018d  ti_catalog_arm_cortexm4_tiva_ce_Boot_sysCtlClockFreqSet__E           
20019424  ti_ndk_config_Global_HostName                                        
20019280  ti_ndk_config_Global_Id2Size                                         
0002b00c  ti_ndk_config_Global_largest                                         
0002b010  ti_ndk_config_Global_numFrameBuf                                     
20011480  ti_ndk_config_Global_pBufMem                                         
20015080  ti_ndk_config_Global_pHdrMem                                         
2000cb80  ti_ndk_config_Global_pit                                             
2000cc28  ti_ndk_config_Global_pitBuffer                                       
0002b004  ti_ndk_config_Global_rawPageCount                                    
0002b000  ti_ndk_config_Global_rawPageSize                                     
00014111  ti_ndk_config_Global_serviceReport                                   
0002b014  ti_ndk_config_Global_sizeFrameBuf                                    
0002b008  ti_ndk_config_Global_smallest                                        
0000afb5  ti_ndk_config_Global_stackThread                                     
00018d99  ti_ndk_config_global_taskCreateHook                                  
000194bd  ti_ndk_config_global_taskExitHook                                    
00013205  ti_ndk_config_ip_init                                                
00014905  ti_ndk_config_tcp_init                                               
000183cd  ti_ndk_config_udp_init                                               
20019220  ti_sysbios_BIOS_Module__state__V                                     
00018f6d  ti_sysbios_BIOS_RtsGateProxy_Handle__label__S                        
00018759  ti_sysbios_BIOS_RtsGateProxy_Object__delete__S                       
000145cd  ti_sysbios_BIOS_RtsGateProxy_enter__E                                
00014fcd  ti_sysbios_BIOS_RtsGateProxy_leave__E                                
000199f9  ti_sysbios_BIOS_RtsGateProxy_query__E                                
000179dd  ti_sysbios_BIOS_atExitFunc__I                                        
000186c9  ti_sysbios_BIOS_errorRaiseHook__I                                    
0001934d  ti_sysbios_BIOS_exitFunc__I                                          
00019669  ti_sysbios_BIOS_getCpuFreq__E                                        
00019841  ti_sysbios_BIOS_getThreadType__E                                     
0000f637  ti_sysbios_BIOS_nullFunc__I                                          
000186ed  ti_sysbios_BIOS_registerRTSLock__I                                   
00018711  ti_sysbios_BIOS_removeRTSLock__I                                     
00018a2d  ti_sysbios_BIOS_rtsLock__I                                           
00019209  ti_sysbios_BIOS_rtsUnlock__I                                         
00019679  ti_sysbios_BIOS_setThreadType__E                                     
00018735  ti_sysbios_BIOS_startFunc__I                                         
00019689  ti_sysbios_BIOS_start__E                                             
20018fd0  ti_sysbios_family_arm_lm4_Timer_Module_State_0_device__A             
20019244  ti_sysbios_family_arm_lm4_Timer_Module_State_0_handles__A            
00019221  ti_sysbios_family_arm_lm4_Timer_Module__startupDone__F               
00019221  ti_sysbios_family_arm_lm4_Timer_Module__startupDone__S               
200193a8  ti_sysbios_family_arm_lm4_Timer_Module__state__V                     
00013af1  ti_sysbios_family_arm_lm4_Timer_Module_startup__E                    
20019010  ti_sysbios_family_arm_lm4_Timer_Object__table__V                     
0002b13c  ti_sysbios_family_arm_lm4_Timer_enableFunc__C                        
00015bd9  ti_sysbios_family_arm_lm4_Timer_enableTimers__I                      
0000f791  ti_sysbios_family_arm_lm4_Timer_enableTiva__I                        
00019851  ti_sysbios_family_arm_lm4_Timer_getMaxTicks__E                       
00014f79  ti_sysbios_family_arm_lm4_Timer_initDevice__I                        
00016259  ti_sysbios_family_arm_lm4_Timer_isrStub__E                           
00019985  ti_sysbios_family_arm_lm4_Timer_masterDisable__I                     
000152ad  ti_sysbios_family_arm_lm4_Timer_masterEnable__I                      
0002b140  ti_sysbios_family_arm_lm4_Timer_numTimerDevices__C                   
0000bfd1  ti_sysbios_family_arm_lm4_Timer_start__E                             
0002b144  ti_sysbios_family_arm_lm4_Timer_startupNeeded__C                     
00016741  ti_sysbios_family_arm_lm4_Timer_startup__E                           
00017a11  ti_sysbios_family_arm_lm4_Timer_stop__E                              
00018909  ti_sysbios_family_arm_lm4_Timer_write__I                             
0002b148  ti_sysbios_family_arm_m3_Hwi_E_NMI__C                                
0002b14c  ti_sysbios_family_arm_m3_Hwi_E_alreadyDefined__C                     
0002b150  ti_sysbios_family_arm_m3_Hwi_E_busFault__C                           
0002b154  ti_sysbios_family_arm_m3_Hwi_E_debugMon__C                           
0002b158  ti_sysbios_family_arm_m3_Hwi_E_hardFault__C                          
0002b15c  ti_sysbios_family_arm_m3_Hwi_E_memFault__C                           
0002b160  ti_sysbios_family_arm_m3_Hwi_E_noIsr__C                              
0002b164  ti_sysbios_family_arm_m3_Hwi_E_reserved__C                           
0002b168  ti_sysbios_family_arm_m3_Hwi_E_svCall__C                             
0002b16c  ti_sysbios_family_arm_m3_Hwi_E_usageFault__C                         
00018f39  ti_sysbios_family_arm_m3_Hwi_Handle__label__S                        
000173f9  ti_sysbios_family_arm_m3_Hwi_Instance_finalize__E                    
00010481  ti_sysbios_family_arm_m3_Hwi_Instance_init__E                        
20018f0a  ti_sysbios_family_arm_m3_Hwi_Module_State_0_excActive__A             
200194d4  ti_sysbios_family_arm_m3_Hwi_Module_State_0_excContext__A            
200194d8  ti_sysbios_family_arm_m3_Hwi_Module_State_0_excStack__A              
0002a3e6  ti_sysbios_family_arm_m3_Hwi_Module__id__C                           
2001942c  ti_sysbios_family_arm_m3_Hwi_Module__root__V                         
00019239  ti_sysbios_family_arm_m3_Hwi_Module__startupDone__F                  
00019239  ti_sysbios_family_arm_m3_Hwi_Module__startupDone__S                  
200190bc  ti_sysbios_family_arm_m3_Hwi_Module__state__V                        
000152b1  ti_sysbios_family_arm_m3_Hwi_Module_startup__E                       
0002b170  ti_sysbios_family_arm_m3_Hwi_NUM_INTERRUPTS__C                       
0002ae90  ti_sysbios_family_arm_m3_Hwi_Object__DESC__C                         
0002ad5c  ti_sysbios_family_arm_m3_Hwi_Object__PARAMS__C                       
0002b174  ti_sysbios_family_arm_m3_Hwi_Object__count__C                        
00018a4d  ti_sysbios_family_arm_m3_Hwi_Object__delete__S                       
000194d1  ti_sysbios_family_arm_m3_Hwi_Object__get__S                          
20019300  ti_sysbios_family_arm_m3_Hwi_Object__table__V                        
0001985d  ti_sysbios_family_arm_m3_Hwi_Params__init__S                         
0002b178  ti_sysbios_family_arm_m3_Hwi_ccr__C                                  
00013b55  ti_sysbios_family_arm_m3_Hwi_create                                  
000156a5  ti_sysbios_family_arm_m3_Hwi_delete                                  
00019869  ti_sysbios_family_arm_m3_Hwi_disableFxn__E                           
00015c21  ti_sysbios_family_arm_m3_Hwi_disableInterrupt__E                     
00013bb9  ti_sysbios_family_arm_m3_Hwi_dispatchC__I                            
20017bd8  ti_sysbios_family_arm_m3_Hwi_dispatchTable                           
0000cab5  ti_sysbios_family_arm_m3_Hwi_dispatch__I                             
00019991  ti_sysbios_family_arm_m3_Hwi_doSwiRestore__I                         
000199b9  ti_sysbios_family_arm_m3_Hwi_doTaskRestore__I                        
00015c69  ti_sysbios_family_arm_m3_Hwi_enableInterrupt__E                      
00008981  ti_sysbios_family_arm_m3_Hwi_excBusFault__I                          
0000ed99  ti_sysbios_family_arm_m3_Hwi_excDebugMon__I                          
000034b9  ti_sysbios_family_arm_m3_Hwi_excDumpRegs__I                          
00018a6d  ti_sysbios_family_arm_m3_Hwi_excHandlerAsm__I                        
0002b17c  ti_sysbios_family_arm_m3_Hwi_excHandlerFunc__C                       
00006d99  ti_sysbios_family_arm_m3_Hwi_excHandlerMax__I                        
00018a91  ti_sysbios_family_arm_m3_Hwi_excHandler__I                           
0000ee59  ti_sysbios_family_arm_m3_Hwi_excHardFault__I                         
0002b100  ti_sysbios_family_arm_m3_Hwi_excHookFuncs__A                         
0002b180  ti_sysbios_family_arm_m3_Hwi_excHookFuncs__C                         
00009a09  ti_sysbios_family_arm_m3_Hwi_excMemFault__I                          
00017431  ti_sysbios_family_arm_m3_Hwi_excNmi__I                               
00016f31  ti_sysbios_family_arm_m3_Hwi_excNoIsr__I                             
00015cb1  ti_sysbios_family_arm_m3_Hwi_excReserved__I                          
00016bd1  ti_sysbios_family_arm_m3_Hwi_excSvCall__I                            
000090a1  ti_sysbios_family_arm_m3_Hwi_excUsageFault__I                        
000162a1  ti_sysbios_family_arm_m3_Hwi_getStackInfo__E                         
00010519  ti_sysbios_family_arm_m3_Hwi_initNVIC__E                             
00014c21  ti_sysbios_family_arm_m3_Hwi_initStacks__E                           
0002b184  ti_sysbios_family_arm_m3_Hwi_nullIsrFunc__C                          
e000e000  ti_sysbios_family_arm_m3_Hwi_nvic                                    
000183f3  ti_sysbios_family_arm_m3_Hwi_pendSV__I                               
000114c9  ti_sysbios_family_arm_m3_Hwi_postInit__I                             
0002b188  ti_sysbios_family_arm_m3_Hwi_priGroup__C                             
20000000  ti_sysbios_family_arm_m3_Hwi_ramVectors                              
00000000  ti_sysbios_family_arm_m3_Hwi_resetVectors                            
000199c1  ti_sysbios_family_arm_m3_Hwi_restoreFxn__E                           
00018417  ti_sysbios_family_arm_m3_Hwi_return                                  
00019999  ti_sysbios_family_arm_m3_Hwi_startup__E                              
000194e9  ti_sysbios_family_arm_m3_Hwi_switchFromBootStack__E                  
000156f5  ti_sysbios_family_arm_m3_TaskSupport_Module__startupDone__S          
00010ce9  ti_sysbios_family_arm_m3_TaskSupport_buildTaskStack                  
00019879  ti_sysbios_family_arm_m3_TaskSupport_checkStack__E                   
00019889  ti_sysbios_family_arm_m3_TaskSupport_getStackAlignment__E            
00019699  ti_sysbios_family_arm_m3_TaskSupport_glue                            
0002b18c  ti_sysbios_family_arm_m3_TaskSupport_stackAlignment__C               
00017a41  ti_sysbios_family_arm_m3_TaskSupport_start__E                        
00019251  ti_sysbios_family_arm_m3_TaskSupport_swap__E                         
00018c47  ti_sysbios_family_xxx_Hwi_switchAndRunFunc                           
00018f53  ti_sysbios_gates_GateHwi_Handle__label__S                            
00019a09  ti_sysbios_gates_GateHwi_Instance_init__E                            
0002addc  ti_sysbios_gates_GateHwi_Module__FXNS__C                             
20019434  ti_sysbios_gates_GateHwi_Module__root__V                             
0002aeb0  ti_sysbios_gates_GateHwi_Object__DESC__C                             
0002b018  ti_sysbios_gates_GateHwi_Object__PARAMS__C                           
00017a71  ti_sysbios_gates_GateHwi_Object__create__S                           
00018ab1  ti_sysbios_gates_GateHwi_Object__delete__S                           
200194dc  ti_sysbios_gates_GateHwi_Object__table__V                            
00019899  ti_sysbios_gates_GateHwi_enter__E                                    
000199c9  ti_sysbios_gates_GateHwi_leave__E                                    
000199f1  ti_sysbios_gates_GateHwi_query__E                                    
00018f6d  ti_sysbios_gates_GateMutex_Handle__label__S                          
0002b190  ti_sysbios_gates_GateMutex_Instance_State_sem__O                     
000196a9  ti_sysbios_gates_GateMutex_Instance_finalize__E                      
00018db9  ti_sysbios_gates_GateMutex_Instance_init__E                          
0002ae00  ti_sysbios_gates_GateMutex_Module__FXNS__C                           
2001943c  ti_sysbios_gates_GateMutex_Module__root__V                           
0002aed0  ti_sysbios_gates_GateMutex_Object__DESC__C                           
0002b030  ti_sysbios_gates_GateMutex_Object__PARAMS__C                         
00017aa1  ti_sysbios_gates_GateMutex_Object__create__S                         
00018759  ti_sysbios_gates_GateMutex_Object__delete__S                         
20019050  ti_sysbios_gates_GateMutex_Object__table__V                          
00017ad1  ti_sysbios_gates_GateMutex_enter__E                                  
00019269  ti_sysbios_gates_GateMutex_leave__E                                  
000199f9  ti_sysbios_gates_GateMutex_query__E                                  
0002b194  ti_sysbios_hal_Hwi_E_stackOverflow__C                                
00018f39  ti_sysbios_hal_Hwi_HwiProxy_Handle__label__S                         
00019239  ti_sysbios_hal_Hwi_HwiProxy_Module__startupDone__S                   
00018a4d  ti_sysbios_hal_Hwi_HwiProxy_Object__delete__S                        
0001985d  ti_sysbios_hal_Hwi_HwiProxy_Params__init__S                          
00015c21  ti_sysbios_hal_Hwi_HwiProxy_disableInterrupt__E                      
00019869  ti_sysbios_hal_Hwi_HwiProxy_disable__E                               
00015c69  ti_sysbios_hal_Hwi_HwiProxy_enableInterrupt__E                       
000162a1  ti_sysbios_hal_Hwi_HwiProxy_getStackInfo__E                          
000199c1  ti_sysbios_hal_Hwi_HwiProxy_restore__E                               
00019999  ti_sysbios_hal_Hwi_HwiProxy_startup__E                               
000194e9  ti_sysbios_hal_Hwi_HwiProxy_switchFromBootStack__E                   
0002a6de  ti_sysbios_hal_Hwi_Module__id__C                                     
00019599  ti_sysbios_hal_Hwi_Module_startup__E                                 
00017469  ti_sysbios_hal_Hwi_checkStack                                        
00015c21  ti_sysbios_hal_Hwi_disableInterrupt__E                               
00015c69  ti_sysbios_hal_Hwi_enableInterrupt__E                                
000162a1  ti_sysbios_hal_Hwi_getStackInfo__E                                   
00017701  ti_sysbios_hal_Hwi_initStack                                         
00019999  ti_sysbios_hal_Hwi_startup__E                                        
000194e9  ti_sysbios_hal_Hwi_switchFromBootStack__E                            
0002b198  ti_sysbios_heaps_HeapMem_E_memory__C                                 
00018f87  ti_sysbios_heaps_HeapMem_Handle__label__S                            
20000380  ti_sysbios_heaps_HeapMem_Instance_State_0_buf__A                     
00016781  ti_sysbios_heaps_HeapMem_Instance_init__E                            
00018f6d  ti_sysbios_heaps_HeapMem_Module_GateProxy_Handle__label__S           
00018759  ti_sysbios_heaps_HeapMem_Module_GateProxy_Object__delete__S          
00015745  ti_sysbios_heaps_HeapMem_Module_GateProxy_enter__E                   
0001629d  ti_sysbios_heaps_HeapMem_Module_GateProxy_leave__E                   
000199f9  ti_sysbios_heaps_HeapMem_Module_GateProxy_query__E                   
0002ad8c  ti_sysbios_heaps_HeapMem_Module__FXNS__C                             
0002b19c  ti_sysbios_heaps_HeapMem_Module__gateObj__C                          
0002ac7e  ti_sysbios_heaps_HeapMem_Module__id__C                               
20019444  ti_sysbios_heaps_HeapMem_Module__root__V                             
0002aef0  ti_sysbios_heaps_HeapMem_Object__DESC__C                             
0002ae24  ti_sysbios_heaps_HeapMem_Object__PARAMS__C                           
0002b1a0  ti_sysbios_heaps_HeapMem_Object__count__C                            
00017b01  ti_sysbios_heaps_HeapMem_Object__create__S                           
00018ad1  ti_sysbios_heaps_HeapMem_Object__delete__S                           
000194fd  ti_sysbios_heaps_HeapMem_Object__get__S                              
20019318  ti_sysbios_heaps_HeapMem_Object__table__V                            
0000dba1  ti_sysbios_heaps_HeapMem_alloc__E                                    
00011f29  ti_sysbios_heaps_HeapMem_free__E                                     
000156a9  ti_sysbios_heaps_HeapMem_getStats__E                                 
00016c11  ti_sysbios_heaps_HeapMem_init__I                                     
000199d1  ti_sysbios_heaps_HeapMem_isBlocking__E                               
0002b1a4  ti_sysbios_heaps_HeapMem_reqAlign__C                                 
00015301  ti_sysbios_knl_Clock_Instance_init__E                                
0002b1a8  ti_sysbios_knl_Clock_Module_State_clockQ__O                          
2001944c  ti_sysbios_knl_Clock_Module__root__V                                 
20019184  ti_sysbios_knl_Clock_Module__state__V                                
00018781  ti_sysbios_knl_Clock_Module_startup__E                               
0002af10  ti_sysbios_knl_Clock_Object__DESC__C                                 
0002ae48  ti_sysbios_knl_Clock_Object__PARAMS__C                               
000198a5  ti_sysbios_knl_Clock_Params__init__S                                 
00019221  ti_sysbios_knl_Clock_TimerProxy_Module__startupDone__S               
000162e5  ti_sysbios_knl_Clock_TimerProxy_getMaxTicks__E                       
00016741  ti_sysbios_knl_Clock_TimerProxy_startup__E                           
00018271  ti_sysbios_knl_Clock_addI__E                                         
00016f69  ti_sysbios_knl_Clock_create                                          
00017eb5  ti_sysbios_knl_Clock_doTick__I                                       
000198b1  ti_sysbios_knl_Clock_getTicks__E                                     
00019a11  ti_sysbios_knl_Clock_logTick__E                                      
0002b1ac  ti_sysbios_knl_Clock_tickPeriod__C                                   
00012c01  ti_sysbios_knl_Clock_workFunc__E                                     
0002b108  ti_sysbios_knl_Idle_funcList__A                                      
0002b110  ti_sysbios_knl_Idle_funcList__C                                      
00019779  ti_sysbios_knl_Idle_loop__E                                          
00018af1  ti_sysbios_knl_Idle_run__E                                           
000199d9  ti_sysbios_knl_Queue_Instance_init__E                                
20019454  ti_sysbios_knl_Queue_Module__root__V                                 
0002af30  ti_sysbios_knl_Queue_Object__DESC__C                                 
0002b048  ti_sysbios_knl_Queue_Object__PARAMS__C                               
00018dd5  ti_sysbios_knl_Queue_Object__destruct__S                             
000198bd  ti_sysbios_knl_Queue_Object__get__S                                  
00017ee1  ti_sysbios_knl_Queue_construct                                       
00016bcd  ti_sysbios_knl_Queue_destruct                                        
00019789  ti_sysbios_knl_Queue_empty__E                                        
00018df1  ti_sysbios_knl_Queue_put__E                                          
0002b1b0  ti_sysbios_knl_Semaphore_Instance_State_pendQ__O                     
000196b9  ti_sysbios_knl_Semaphore_Instance_finalize__E                        
000187a9  ti_sysbios_knl_Semaphore_Instance_init__E                            
2001945c  ti_sysbios_knl_Semaphore_Module__root__V                             
0002af50  ti_sysbios_knl_Semaphore_Object__DESC__C                             
0002ae6c  ti_sysbios_knl_Semaphore_Object__PARAMS__C                           
000187cd  ti_sysbios_knl_Semaphore_Object__delete__S                           
00018b11  ti_sysbios_knl_Semaphore_Object__destruct__S                         
000198c9  ti_sysbios_knl_Semaphore_Params__init__S                             
00017b31  ti_sysbios_knl_Semaphore_construct                                   
0001749d  ti_sysbios_knl_Semaphore_create                                      
00016c0d  ti_sysbios_knl_Semaphore_delete                                      
00016c4d  ti_sysbios_knl_Semaphore_destruct                                    
00017739  ti_sysbios_knl_Semaphore_pendTimeout__I                              
0000a2c9  ti_sysbios_knl_Semaphore_pend__E                                     
00013c21  ti_sysbios_knl_Semaphore_post__E                                     
000195b1  ti_sysbios_knl_Semaphore_reset__E                                    
00018fa1  ti_sysbios_knl_Swi_Handle__label__S                                  
00019a19  ti_sysbios_knl_Swi_Instance_finalize__E                              
00014fd1  ti_sysbios_knl_Swi_Instance_init__E                                  
20018cf4  ti_sysbios_knl_Swi_Module_State_0_readyQ__A                          
20019464  ti_sysbios_knl_Swi_Module__root__V                                   
2001929c  ti_sysbios_knl_Swi_Module__state__V                                  
00018299  ti_sysbios_knl_Swi_Module_startup__E                                 
0002af70  ti_sysbios_knl_Swi_Object__DESC__C                                   
0002adb4  ti_sysbios_knl_Swi_Object__PARAMS__C                                 
0002b1b4  ti_sysbios_knl_Swi_Object__count__C                                  
00018b31  ti_sysbios_knl_Swi_Object__delete__S                                 
00019511  ti_sysbios_knl_Swi_Object__get__S                                    
20019154  ti_sysbios_knl_Swi_Object__table__V                                  
00014511  ti_sysbios_knl_Swi_create                                            
0001742d  ti_sysbios_knl_Swi_delete                                            
000196c9  ti_sysbios_knl_Swi_disable__E                                        
000162e9  ti_sysbios_knl_Swi_post__E                                           
00013271  ti_sysbios_knl_Swi_restoreHwi__E                                     
00016c51  ti_sysbios_knl_Swi_restore__E                                        
000156f9  ti_sysbios_knl_Swi_runLoop__I                                        
00014571  ti_sysbios_knl_Swi_run__I                                            
000145d1  ti_sysbios_knl_Swi_schedule__I                                       
000199e1  ti_sysbios_knl_Swi_startup__E                                        
0002b1b8  ti_sysbios_knl_Task_E_deleteNotAllowed__C                            
0002b1bc  ti_sysbios_knl_Task_E_spOutOfBounds__C                               
0002b1c0  ti_sysbios_knl_Task_E_stackOverflow__C                               
00018fbb  ti_sysbios_knl_Task_Handle__label__S                                 
20018aa8  ti_sysbios_knl_Task_Instance_State_0_hookEnv__A                      
200173d8  ti_sysbios_knl_Task_Instance_State_0_stack__A                        
20018aac  ti_sysbios_knl_Task_Instance_State_1_hookEnv__A                      
200179d8  ti_sysbios_knl_Task_Instance_State_1_stack__A                        
00009769  ti_sysbios_knl_Task_Instance_finalize__E                             
0000cba9  ti_sysbios_knl_Task_Instance_init__E                                 
200194e0  ti_sysbios_knl_Task_Module_State_0_idleTask__A                       
20018d74  ti_sysbios_knl_Task_Module_State_0_readyQ__A                         
0002b1c4  ti_sysbios_knl_Task_Module_State_inactiveQ__O                        
0002b1c8  ti_sysbios_knl_Task_Module_State_terminatedQ__O                      
0002acbe  ti_sysbios_knl_Task_Module__id__C                                    
2001946c  ti_sysbios_knl_Task_Module__root__V                                  
20018f0c  ti_sysbios_knl_Task_Module__state__V                                 
00010881  ti_sysbios_knl_Task_Module_startup__E                                
0002af90  ti_sysbios_knl_Task_Object__DESC__C                                  
0002acc0  ti_sysbios_knl_Task_Object__PARAMS__C                                
0002b1cc  ti_sysbios_knl_Task_Object__count__C                                 
00018b51  ti_sysbios_knl_Task_Object__delete__S                                
00019525  ti_sysbios_knl_Task_Object__first__S                                 
000196d9  ti_sysbios_knl_Task_Object__get__S                                   
0002b1d0  ti_sysbios_knl_Task_Object__heap__C                                  
00019539  ti_sysbios_knl_Task_Object__next__S                                  
20018c5c  ti_sysbios_knl_Task_Object__table__V                                 
000198d5  ti_sysbios_knl_Task_Params__init__S                                  
000156f5  ti_sysbios_knl_Task_SupportProxy_Module__startupDone__S              
00019879  ti_sysbios_knl_Task_SupportProxy_checkStack__E                       
00019889  ti_sysbios_knl_Task_SupportProxy_getStackAlignment__E                
00017a41  ti_sysbios_knl_Task_SupportProxy_start__E                            
00019251  ti_sysbios_knl_Task_SupportProxy_swap__E                             
0002b1d4  ti_sysbios_knl_Task_allBlockedFunc__C                                
00015749  ti_sysbios_knl_Task_allBlockedFunction__I                            
0000f421  ti_sysbios_knl_Task_checkStacks__E                                   
0001462d  ti_sysbios_knl_Task_create                                           
0002b1d8  ti_sysbios_knl_Task_defaultStackHeap__C                              
0002b1dc  ti_sysbios_knl_Task_defaultStackSize__C                              
00017465  ti_sysbios_knl_Task_delete                                           
00015cf9  ti_sysbios_knl_Task_deleteTerminatedTasksFunc__I                     
000196e9  ti_sysbios_knl_Task_disable__E                                       
00018e11  ti_sysbios_knl_Task_enter__I                                         
0000ef19  ti_sysbios_knl_Task_exit__E                                          
000199a1  ti_sysbios_knl_Task_getHookContext__E                                
000198e1  ti_sysbios_knl_Task_getIdleTask__E                                   
0002b060  ti_sysbios_knl_Task_hooks__A                                         
0002b118  ti_sysbios_knl_Task_hooks__C                                         
0002b1e0  ti_sysbios_knl_Task_numConstructedTasks__C                           
0000cf71  ti_sysbios_knl_Task_postInit__I                                      
00016fa1  ti_sysbios_knl_Task_processVitalTaskFlag__I                          
000187f1  ti_sysbios_knl_Task_restoreHwi__E                                    
00017f11  ti_sysbios_knl_Task_restore__E                                       
00010229  ti_sysbios_knl_Task_schedule__I                                      
000198f1  ti_sysbios_knl_Task_self__E                                          
000199a9  ti_sysbios_knl_Task_setHookContext__E                                
0000f989  ti_sysbios_knl_Task_setPri__E                                        
00018fd9  ti_sysbios_knl_Task_sleepTimeout__I                                  
0000e601  ti_sysbios_knl_Task_sleep__E                                         
00010911  ti_sysbios_knl_Task_startCore__E                                     
00019a01  ti_sysbios_knl_Task_startup__E                                       
0001925d  ti_sysbios_knl_Task_swapReturn                                       
00014689  ti_sysbios_knl_Task_unblockI__E                                      
20018a28  tpseudo                                                              
20018938  udps                                                                 
20018ab0  ui32SysClock                                                         
00017f3d  unlink                                                               
000146e5  unmount                                                              
20018a34  upseudo                                                              
00018815  user_disk_initialize                                                 
0000fde9  user_disk_ioctl                                                      
000105ad  user_disk_read                                                       
00014c79  user_disk_status                                                     
0000d22d  user_disk_write                                                      
200188ec  vlan_mcb                                                             
0001954d  wait                                                                 
000195c3  wcslen                                                               
000182c1  write                                                                
0000d3f5  write_file                                                           
0002b1e4  xdc_runtime_Assert_E_assertFailed__C                                 
00015025  xdc_runtime_Assert_raise__I                                          
0002b1e8  xdc_runtime_Core_A_initializedParams__C                              
0002b1ec  xdc_runtime_Core_Module__diagsEnabled__C                             
0002b1f0  xdc_runtime_Core_Module__diagsIncluded__C                            
0002b1f4  xdc_runtime_Core_Module__diagsMask__C                                
0002b270  xdc_runtime_Core_Module__id__C                                       
000174d1  xdc_runtime_Core_assignLabel__I                                      
00015e59  xdc_runtime_Core_assignParams__I                                     
0000e211  xdc_runtime_Core_constructObject__I                                  
0000c3e1  xdc_runtime_Core_createObject__I                                     
000137c9  xdc_runtime_Core_deleteObject__I                                     
0002b1f8  xdc_runtime_Error_E_memory__C                                        
0002b1fc  xdc_runtime_Error_Module__diagsEnabled__C                            
0002b200  xdc_runtime_Error_Module__diagsIncluded__C                           
0002b204  xdc_runtime_Error_Module__diagsMask__C                               
0002b272  xdc_runtime_Error_Module__loggerDefined__C                           
0002b208  xdc_runtime_Error_Module__loggerFxn8__C                              
0002b20c  xdc_runtime_Error_Module__loggerObj__C                               
20019122  xdc_runtime_Error_Module__state__V                                   
00019281  xdc_runtime_Error_check__E                                           
00017a0d  xdc_runtime_Error_getMsg__E                                          
00017f0d  xdc_runtime_Error_getSite__E                                         
000198fd  xdc_runtime_Error_init__E                                            
0002b274  xdc_runtime_Error_maxDepth__C                                        
0000b425  xdc_runtime_Error_policyDefault__E                                   
0002b210  xdc_runtime_Error_policyFxn__C                                       
0002ac7d  xdc_runtime_Error_policy__C                                          
000132dd  xdc_runtime_Error_print__E                                           
0002b214  xdc_runtime_Error_raiseHook__C                                       
00018e2d  xdc_runtime_Error_raiseX__E                                          
0001632d  xdc_runtime_Error_setX__E                                            
00019909  xdc_runtime_Gate_enterSystem__E                                      
000196f9  xdc_runtime_Gate_leaveSystem__E                                      
0002b218  xdc_runtime_IGateProvider_Interface__BASE__C                         
0002b21c  xdc_runtime_IHeap_Interface__BASE__C                                 
0002b220  xdc_runtime_IModule_Interface__BASE__C                               
0002b224  xdc_runtime_Log_L_error__C                                           
00018f53  xdc_runtime_Main_Module_GateProxy_Handle__label__S                   
00018ab1  xdc_runtime_Main_Module_GateProxy_Object__delete__S                  
000199f1  xdc_runtime_Main_Module_GateProxy_query__E                           
00018f87  xdc_runtime_Memory_HeapProxy_Handle__label__S                        
00018ad1  xdc_runtime_Memory_HeapProxy_Object__delete__S                       
00019941  xdc_runtime_Memory_HeapProxy_alloc__E                                
0001994b  xdc_runtime_Memory_HeapProxy_free__E                                 
0002b276  xdc_runtime_Memory_Module__id__C                                     
200194e4  xdc_runtime_Memory_Module__state__V                                  
00013349  xdc_runtime_Memory_alloc__E                                          
00019915  xdc_runtime_Memory_calloc__E                                         
0002b228  xdc_runtime_Memory_defaultHeapInstance__C                            
00019709  xdc_runtime_Memory_free__E                                           
00019921  xdc_runtime_Memory_getMaxDefaultTypeAlign__E                         
00018e49  xdc_runtime_Memory_valloc__E                                         
20019474  xdc_runtime_Registry_Module__state__V                                
00018b71  xdc_runtime_Registry_findById__E                                     
2001947c  xdc_runtime_Startup_Module__state__V                                 
00000001  xdc_runtime_Startup__EXECFXN__C                                      
00000001  xdc_runtime_Startup__RESETFXN__C                                     
0002b22c  xdc_runtime_Startup_execImpl__C                                      
00015351  xdc_runtime_Startup_exec__E                                          
000195d5  xdc_runtime_Startup_exec__I                                          
0002b08c  xdc_runtime_Startup_firstFxns__A                                     
0002b120  xdc_runtime_Startup_firstFxns__C                                     
0002b128  xdc_runtime_Startup_lastFxns__C                                      
0002b230  xdc_runtime_Startup_maxPasses__C                                     
0000fe87  xdc_runtime_Startup_reset__I                                         
0002b0c0  xdc_runtime_Startup_sfxnRts__A                                       
0002b234  xdc_runtime_Startup_sfxnRts__C                                       
0002afb0  xdc_runtime_Startup_sfxnTab__A                                       
0002b238  xdc_runtime_Startup_sfxnTab__C                                       
0000c7d1  xdc_runtime_Startup_startMods__I                                     
20018714  xdc_runtime_SysMin_Module_State_0_outbuf__A                          
200193b4  xdc_runtime_SysMin_Module__state__V                                  
00018b91  xdc_runtime_SysMin_Module_startup__E                                 
00017b61  xdc_runtime_SysMin_abort__E                                          
0002b23c  xdc_runtime_SysMin_bufSize__C                                        
00018e65  xdc_runtime_SysMin_exit__E                                           
0002b278  xdc_runtime_SysMin_flushAtExit__C                                    
00016371  xdc_runtime_SysMin_flush__E                                          
0002b240  xdc_runtime_SysMin_outputFunc__C                                     
0001892b  xdc_runtime_SysMin_output__I                                         
00016fd9  xdc_runtime_SysMin_putch__E                                          
00019719  xdc_runtime_SysMin_ready__E                                          
00018f53  xdc_runtime_System_Module_GateProxy_Handle__label__S                 
00018ab1  xdc_runtime_System_Module_GateProxy_Object__delete__S                
0001877d  xdc_runtime_System_Module_GateProxy_enter__E                         
000187a5  xdc_runtime_System_Module_GateProxy_leave__E                         
000199f1  xdc_runtime_System_Module_GateProxy_query__E                         
20019484  xdc_runtime_System_Module_State_0_atexitHandlers__A                  
0002b244  xdc_runtime_System_Module__gateObj__C                                
2001948c  xdc_runtime_System_Module__state__V                                  
000199e7  xdc_runtime_System_Module_startup__E                                 
00017b61  xdc_runtime_System_SupportProxy_abort__E                             
00018e65  xdc_runtime_System_SupportProxy_exit__E                              
00016371  xdc_runtime_System_SupportProxy_flush__E                             
00016fd9  xdc_runtime_System_SupportProxy_putch__E                             
00019719  xdc_runtime_System_SupportProxy_ready__E                             
0002b248  xdc_runtime_System_abortFxn__C                                       
00012bfd  xdc_runtime_System_abortStd__E                                       
00018e81  xdc_runtime_System_abort__E                                          
00018ff3  xdc_runtime_System_aprintf__E                                        
00018a8d  xdc_runtime_System_aprintf_va__F                                     
00017011  xdc_runtime_System_atexit__E                                         
00018419  xdc_runtime_System_avprintf__E                                       
00004769  xdc_runtime_System_doPrint__I                                        
0002b24c  xdc_runtime_System_exitFxn__C                                        
00015b01  xdc_runtime_System_exitStd__E                                        
00019299  xdc_runtime_System_exit__E                                           
0002b250  xdc_runtime_System_extendFxn__C                                      
00016371  xdc_runtime_System_flush__E                                          
00012f79  xdc_runtime_System_formatNum__I                                      
0002b254  xdc_runtime_System_maxAtexitHandlers__C                              
0000c8c9  xdc_runtime_System_printfExtend__I                                   
0001900d  xdc_runtime_System_printf__E                                         
00018db5  xdc_runtime_System_printf_va__F                                      
00017b91  xdc_runtime_System_processAtExit__E                                  
00018067  xdc_runtime_System_putchar__I                                        
00018839  xdc_runtime_System_vprintf__E                                        
00019729  xdc_runtime_System_vsnprintf__E                                      
0001938f  xdc_runtime_System_vsprintf__E                                       
0002b27a  xdc_runtime_Text_charCnt__C                                          
00028110  xdc_runtime_Text_charTab__A                                          
0002b258  xdc_runtime_Text_charTab__C                                          
00017f69  xdc_runtime_Text_cordText__E                                         
0002b27c  xdc_runtime_Text_isLoaded__C                                         
0002b25c  xdc_runtime_Text_nameEmpty__C                                        
0002b260  xdc_runtime_Text_nameStatic__C                                       
0002b264  xdc_runtime_Text_nameUnknown__C                                      
0002a60a  xdc_runtime_Text_nodeTab__A                                          
0002b268  xdc_runtime_Text_nodeTab__C                                          
00017505  xdc_runtime_Text_printVisFxn__I                                      
00014741  xdc_runtime_Text_putLab__E                                           
0000fc0d  xdc_runtime_Text_putMod__E                                           
0000ffc1  xdc_runtime_Text_putSite__E                                          
0002b27e  xdc_runtime_Text_registryModsLastId__C                               
000192b1  xdc_runtime_Text_ropeText__E                                         
0002b280  xdc_runtime_Text_unnamedModsLastId__C                                
000153a1  xdc_runtime_Text_visitRope2__I                                       
0002b26c  xdc_runtime_Text_visitRopeFxn__C                                     
00019739  xdc_runtime_Text_visitRope__I                                        
000163b5  xdc_runtime_Text_xprintf__I                                          


GLOBAL SYMBOLS: SORTED BY Symbol Address 

address   name                                                                 
-------   ----                                                                 
00000000  __ASM__                                                              
00000000  ti_sysbios_family_arm_m3_Hwi_resetVectors                            
00000001  xdc_runtime_Startup__EXECFXN__C                                      
00000001  xdc_runtime_Startup__RESETFXN__C                                     
00000041  TcpInput                                                             
00000064  __ISA__                                                              
00000077  __PLAT__                                                             
00000098  __TARG__                                                             
000000be  __TRDR__                                                             
00000800  __STACK_SIZE                                                         
00000ca9  __TI_scanfi                                                          
00001799  __TI_printfi                                                         
000021e7  LED_TOGGLE                                                           
000021e9  TcpOutput                                                            
00002aa1  tcpWorker                                                            
00003059  strtod                                                               
00003059  strtold                                                              
000034b9  ti_sysbios_family_arm_m3_Hwi_excDumpRegs__I                          
000038e9  IPTxPacket                                                           
00004085  IPRxPacket                                                           
00004769  xdc_runtime_System_doPrint__I                                        
00004ab5  SysCtlClockFreqSet                                                   
00004db5  f_open                                                               
00005069  SockSet                                                              
000052ed  f_write                                                              
0000556f  NatMsg                                                               
00005571  GPIOPadConfigSet                                                     
00005a51  sha1_transform                                                       
00005cb1  IPReasm                                                              
00005efd  ICMPInput                                                            
00006139  UdpInput                                                             
00006371  f_read                                                               
00006591  handle_websocket_handshake                                           
00006799  tcpHandler                                                           
0000699d  ti_catalog_arm_cortexm4_tiva_ce_Boot_sysCtlClockFreqSetI__I          
00006ba1  SockRecv                                                             
00006d95  BindGetIF                                                            
00006d99  ti_sysbios_family_arm_m3_Hwi_excHandlerMax__I                        
00006f8d  strtoll                                                              
00007339  EMACSnow_NIMUInit                                                    
000074f1  __aeabi_dsub                                                         
000074fb  __aeabi_dadd                                                         
000076a7  _TaskInit                                                            
000076a9  LLITxIpPacket                                                        
00007859  LLIRxPacket                                                          
00007ba7  _TaskShutdown                                                        
00007ba9  mmAlloc                                                              
00007d45  IGMPInput                                                            
0000806f  _llSerialServiceCheck                                                
00008071  SockNew                                                              
00008201  sha1_final                                                           
00008519  send_file_web                                                        
00008807  _llSerialShutdown                                                    
00008809  NC_NetStart                                                          
0000897d  BindGetNext                                                          
00008981  ti_sysbios_family_arm_m3_Hwi_excBusFault__I                          
00008af5  RTCReport                                                            
00008c65  SBRead                                                               
00008dcf  _llUserLedInit                                                       
00008dd1  ff_wtoupper                                                          
00008f39  flash_init                                                           
0000909d  NDK_vsprintf                                                         
000090a1  ti_sysbios_family_arm_m3_Hwi_excUsageFault__I                        
00009205  SockConnect                                                          
00009365  strtoull                                                             
000094c1  DHCPOpen                                                             
00009619  GPIO_setConfig                                                       
00009769  ti_sysbios_knl_Task_Instance_finalize__E                             
000098b9  __vla_alloc                                                          
00009a05  NodeSetRt                                                            
00009a09  ti_sysbios_family_arm_m3_Hwi_excMemFault__I                          
00009b51  BindNew                                                              
00009c95  TcpTimeoutCheck                                                      
00009dd5  CfgAddEntry                                                          
00009f11  SockNotify                                                           
0000a04d  SockSend                                                             
0000a2c5  RawEthSockPrAttach                                                   
0000a2c9  ti_sysbios_knl_Semaphore_pend__E                                     
0000a401  __aeabi_ddiv                                                         
0000a537  _llUserLedShutdown                                                   
0000a539  ICMPGenPacket                                                        
0000a66d  strtol                                                               
0000a79d  EK_TM4C1294XL_initEMAC                                               
0000ab1f  _nop                                                                 
0000ab21  main                                                                 
0000ac49  SockPcbResolve                                                       
0000ad6d  UdpOutput                                                            
0000afb5  ti_ndk_config_Global_stackThread                                     
0000b0d9  b64_encode                                                           
0000b1f5  TcpGenPacket                                                         
0000b425  xdc_runtime_Error_policyDefault__E                                   
0000b53d  NIMUIoctl                                                            
0000b651  fputs                                                                
0000b765  NodeTreeFree                                                         
0000b875  RawInput                                                             
0000b985  ldexp                                                                
0000b985  ldexpl                                                               
0000b985  scalbn                                                               
0000b985  scalbnl                                                              
0000ba95  strtoul                                                              
0000bba5  RtFind                                                               
0000bcb1  RtCreate                                                             
0000bec5  EMACSnow_emacStart                                                   
0000bfcd  RawEthSockPrDetach                                                   
0000bfd1  ti_sysbios_family_arm_lm4_Timer_start__E                             
0000c0d9  llEnter                                                              
0000c1dd  dhcpPacketProcess                                                    
0000c2df  llSerialService                                                      
0000c3e1  xdc_runtime_Core_createObject__I                                     
0000c5dd  __aeabi_dmul                                                         
0000c6d9  PipeRecv                                                             
0000c7d1  xdc_runtime_Startup_startMods__I                                     
0000c8c9  xdc_runtime_System_printfExtend__I                                   
0000c9c1  TaskGetEnv                                                           
0000cab5  ti_sysbios_family_arm_m3_Hwi_dispatch__I                             
0000cba9  ti_sysbios_knl_Task_Instance_init__E                                 
0000cc9d  send_websocket_frame                                                 
0000cd8f  __aeabi_idiv0                                                        
0000cd8f  __aeabi_ldiv0                                                        
0000cd91  LLIGenArpPacket                                                      
0000ce81  SockClose                                                            
0000cf71  ti_sysbios_knl_Task_postInit__I                                      
0000d05d  TaskSetEnv                                                           
0000d22d  user_disk_write                                                      
0000d315  TcpTimeoutRexmt                                                      
0000d3f5  write_file                                                           
0000d4d5  SBWrite                                                              
0000d5b1  dhcpSocketOpen                                                       
0000d68d  dhcpState                                                            
0000d769  setvbuf                                                              
0000d845  NodeAdd                                                              
0000d91d  TcpPrSetOption                                                       
0000dac9  SockPcbBind                                                          
0000db9d  SemPend                                                              
0000dba1  ti_sysbios_heaps_HeapMem_alloc__E                                    
0000dc75  NIMUReceivePacket                                                    
0000de15  ICMPSendRtAdv                                                        
0000e079  dhcpVerifyMessage                                                    
0000e145  f_sync                                                               
0000e211  xdc_runtime_Core_constructObject__I                                  
0000e2dd  RawEthSockNew                                                        
0000e3a5  ReadFlash                                                            
0000e535  perror                                                               
0000e5fd  SemPost                                                              
0000e601  TaskSleep                                                            
0000e601  ti_sysbios_knl_Task_sleep__E                                         
0000e6c9  EMACSnow_InitDMADescriptors                                          
0000e851  PageProgram                                                          
0000ecd9  VLANDeinit                                                           
0000ed95  SemReset                                                             
0000ed99  ti_sysbios_family_arm_m3_Hwi_excDebugMon__I                          
0000ee55  TaskSelf                                                             
0000ee59  ti_sysbios_family_arm_m3_Hwi_excHardFault__I                         
0000ef15  TaskSetPri                                                           
0000ef19  TaskExit                                                             
0000ef19  ti_sysbios_knl_Task_exit__E                                          
0000efd5  EK_TM4C1294XL_initGeneral                                            
0000f145  _LLITimeoutCheck                                                     
0000f1fd  ff_uni2oem                                                           
0000f36d  TcpTimeoutKeep                                                       
0000f421  ti_sysbios_knl_Task_checkStacks__E                                   
0000f587  RawEthSockSet                                                        
0000f637  ti_sysbios_BIOS_nullFunc__I                                          
0000f6e5  ff_oem2uni                                                           
0000f791  ti_sysbios_family_arm_lm4_Timer_enableTiva__I                        
0000f83d  SockCreatePacket                                                     
0000f8e5  GPIOIntTypeSet                                                       
0000f989  ti_sysbios_knl_Task_setPri__E                                        
0000fa2d  IPGetRoute                                                           
0000facd  SPI_Init                                                             
0000fb6d  __TI_auto_init                                                       
0000fc0d  xdc_runtime_Text_putMod__E                                           
0000fcad  NIMUAddEthernetHeader                                                
0000fd4b  dhcpBuildRequest                                                     
0000fde9  user_disk_ioctl                                                      
0000fe87  xdc_runtime_Startup_reset__I                                         
0000fe89  ExecOpen                                                             
0000ff25  __aeabi_memcpy                                                       
0000ff25  __aeabi_memcpy4                                                      
0000ff25  __aeabi_memcpy8                                                      
0000ff25  memcpy                                                               
0000ffc1  xdc_runtime_Text_putSite__E                                          
0001005d  NC_SystemOpen                                                        
0001018d  ti_catalog_arm_cortexm4_tiva_ce_Boot_sysCtlClockFreqSet__E           
00010225  __abort_execution                                                    
00010229  ti_sysbios_knl_Task_schedule__I                                      
00010357  __aeabi_uldivmod                                                     
000103ed  CfgRemoveEntry                                                       
00010481  ti_sysbios_family_arm_m3_Hwi_Instance_init__E                        
00010515  _llSerialInit                                                        
00010519  ti_sysbios_family_arm_m3_Hwi_initNVIC__E                             
000105ad  user_disk_read                                                       
00010641  CfgExecute                                                           
000106d1  IGMPMsg                                                              
000107f1  mmBulkAlloc                                                          
00010881  ti_sysbios_knl_Task_Module_startup__E                                
00010911  ti_sysbios_knl_Task_startCore__E                                     
000109a1  GPIO_init                                                            
00010a2d  IPMsg                                                                
00010ab9  SysCtlPeripheralReset                                                
00010b45  _mmInit                                                              
00010bd1  fputc                                                                
00010bd1  putc                                                                 
00010ce9  ti_sysbios_family_arm_m3_TaskSupport_buildTaskStack                  
00010f11  SockPcbCtlError                                                      
0001101f  __aeabi_cdcmpeq                                                      
0001101f  __aeabi_cdcmple                                                      
000110a5  __aeabi_cdrcmple                                                     
0001112d  CfgGetEntry                                                          
000111b1  EMACSnow_processPhyInterrupt                                         
00011235  TcpPrAttach                                                          
000112b9  f_mount                                                              
0001133d  mmBulkFree                                                           
000113c1  mmFree                                                               
000114c9  ti_sysbios_family_arm_m3_Hwi_postInit__I                             
000115d1  EMACSnow_emacStop                                                    
000116d1  LLINew                                                               
00011751  NS_BootTask                                                          
000117d1  PBM_alloc                                                            
00011851  RawOutput                                                            
000119d1  fdClose                                                              
00011acd  CfgGetNextEntry                                                      
00011b49  EMACSnow_hwiIntFxn                                                   
00011c41  IGMPJoin                                                             
00011cbd  NDK_setsockopt                                                       
00011d39  NIMURegister                                                         
00011db5  PBM_free                                                             
00011e31  SectorErase                                                          
00011f29  ti_sysbios_heaps_HeapMem_free__E                                     
00011fa5  SSIConfigSetExpClk                                                   
0001201f  SockAccept                                                           
00012099  __aeabi_memclr                                                       
00012099  __aeabi_memclr4                                                      
00012099  __aeabi_memclr8                                                      
0001209b  __aeabi_memset                                                       
0001209b  __aeabi_memset4                                                      
0001209b  __aeabi_memset8                                                      
000120a1  memset                                                               
00012115  EMACInit                                                             
0001218d  NDK_sendto                                                           
00012205  TcpXmitTimer                                                         
000122f5  fdOpenSession                                                        
0001236d  llExit                                                               
000123e5  sha1_init                                                            
0001245d  PipeSend                                                             
000124d5  TcpTimeoutSackRexmt                                                  
0001254d  IGMPLeaveHostGroup                                                   
000125c1  NIMUShutdown                                                         
00012635  RawEthRxPacket                                                       
000126a9  ReadJEDECID                                                          
0001271d  SockPcbConnect                                                       
00012791  __TI_closefile                                                       
00012805  netOpenHook                                                          
00012879  SemCreateBinary                                                      
000128eb  NDK_accept                                                           
0001295b  NDK_send                                                             
00012aad  SockShutdown                                                         
00012b1d  __vla_dealloc                                                        
00012b8d  dhcpDecodeType                                                       
00012bfd  C$$EXIT                                                              
00012bfd  abort                                                                
00012bfd  xdc_runtime_System_abortStd__E                                       
00012c01  ti_sysbios_knl_Clock_workFunc__E                                     
00012c71  NDK_recv                                                             
00012ce1  RtWalkNext                                                           
00012e2b  __aeabi_d2f                                                          
00012e99  sha1_update                                                          
00012f79  xdc_runtime_System_formatNum__I                                      
00012fe9  DbgPrintf                                                            
00013055  HOSTrename                                                           
000130c1  NodeTreeNew                                                          
0001312d  RawEthTxPacket                                                       
00013199  UdpChecksum                                                          
00013205  ti_ndk_config_ip_init                                                
00013271  ti_sysbios_knl_Swi_restoreHwi__E                                     
000132dd  xdc_runtime_Error_print__E                                           
00013349  xdc_runtime_Memory_alloc__E                                          
000133b5  TcpPrInherit                                                         
00013489  GPIOPinConfigure                                                     
000134f1  HOSTlseek                                                            
00013559  NDK_socket                                                           
000135c1  PBM_open                                                             
00013629  SockListen                                                           
00013691  _RtNodeInsert                                                        
00013761  __TI_decompress_lzss                                                 
000137c9  xdc_runtime_Core_deleteObject__I                                     
00013831  CfgFree                                                              
00013895  GPIO_hwiIntFxn                                                       
000138f9  PBMQ_enq                                                             
0001395d  SockSpawnAbort                                                       
000139c1  frexp                                                                
000139c1  frexpl                                                               
00013a25  fseek                                                                
00013a89  llTimerTick                                                          
00013aed  list_get_head                                                        
00013af1  ti_sysbios_family_arm_lm4_Timer_Module_startup__E                    
00013b55  ti_sysbios_family_arm_m3_Hwi_create                                  
00013bb9  ti_sysbios_family_arm_m3_Hwi_dispatchC__I                            
00013c1d  list_get_next                                                        
00013c21  ti_sysbios_knl_Semaphore_post__E                                     
00013d4d  SBNew                                                                
00013daf  __TI_wrt_ok                                                          
00013e11  CfgGetEntryCnt                                                       
00013e71  FdWaitEvent                                                          
00013ed1  HOSTopen                                                             
00013f31  NIMUUnregister                                                       
00013f91  NodeFind                                                             
00013ff1  RTCMsg                                                               
00014051  TcpChecksum                                                          
000140b1  dhcpBuildOptions                                                     
00014111  ti_ndk_config_Global_serviceReport                                   
00014171  RtRemove                                                             
0001422d  VLANReceivePacket                                                    
0001428d  CfgSetExecuteOrder                                                   
000142e9  GPIODirModeSet                                                       
000143fd  close                                                                
00014459  mount                                                                
00014511  ti_sysbios_knl_Swi_create                                            
00014571  ti_sysbios_knl_Swi_run__I                                            
000145cd  ti_sysbios_BIOS_RtsGateProxy_enter__E                                
000145d1  ti_sysbios_knl_Swi_schedule__I                                       
0001462d  ti_sysbios_knl_Task_create                                           
00014689  ti_sysbios_knl_Task_unblockI__E                                      
000146e5  unmount                                                              
00014741  xdc_runtime_Text_putLab__E                                           
0001479d  RtRedirect                                                           
000147f7  TcpValidateMetrics                                                   
00014851  dhcpBuildDecline                                                     
000148ab  mmCopy                                                               
00014905  ti_ndk_config_tcp_init                                               
00014961  BindFree                                                             
000149b9  _c_int00                                                             
00014a11  EMACPHYConfigSet                                                     
00014a69  HOSTread                                                             
00014ac1  HOSTwrite                                                            
00014b71  SemCreate                                                            
00014c21  ti_sysbios_family_arm_m3_Hwi_initStacks__E                           
00014c79  user_disk_status                                                     
00014d81  CfgEntryDeRef                                                        
00014dd5  IGMPLeave                                                            
00014e29  RawEthSockPcbAttach                                                  
00014e7d  SockCleanPcb                                                         
00014ed1  TcpTimeoutPersist                                                    
00014f25  __TI_ltoa                                                            
00014f79  ti_sysbios_family_arm_lm4_Timer_initDevice__I                        
00014fcd  ti_sysbios_BIOS_RtsGateProxy_leave__E                                
00014fd1  ti_sysbios_knl_Swi_Instance_init__E                                  
00015025  xdc_runtime_Assert_raise__I                                          
00015079  TcpPrDetach                                                          
0001511d  GPIO_setCallback                                                     
0001516d  NDK_bind                                                             
000152ad  ti_sysbios_family_arm_lm4_Timer_masterEnable__I                      
000152b1  ti_sysbios_family_arm_m3_Hwi_Module_startup__E                       
00015301  ti_sysbios_knl_Clock_Instance_init__E                                
00015351  xdc_runtime_Startup_exec__E                                          
000153a1  xdc_runtime_Text_visitRope2__I                                       
000153f1  NodeDeRef                                                            
000154dd  NtAddNetwork                                                         
00015529  SockValidateRoute                                                    
00015575  __TI_doflush                                                         
000155c1  atoi                                                                 
0001560d  copy_in                                                              
00015659  snprintf                                                             
000156a5  ti_sysbios_family_arm_m3_Hwi_delete                                  
000156a9  ti_sysbios_heaps_HeapMem_getStats__E                                 
000156f5  ti_sysbios_family_arm_m3_TaskSupport_Module__startupDone__S          
000156f5  ti_sysbios_knl_Task_SupportProxy_Module__startupDone__S              
000156f9  ti_sysbios_knl_Swi_runLoop__I                                        
00015745  ti_sysbios_heaps_HeapMem_Module_GateProxy_enter__E                   
00015749  ti_sysbios_knl_Task_allBlockedFunction__I                            
0001582b  SockDisconnect                                                       
00015875  TimerNew                                                             
000158bf  CfgNew                                                               
00015909  LLIMsg                                                               
00015951  NodeWalk                                                             
00015999  RawEthSockPcbDetach                                                  
000159e1  SockPcbResolveChain                                                  
00015a29  TcpDrop                                                              
00015a71  _LLIExpListInsert                                                    
00015ab9  _RtExpListInsert                                                     
00015b01  exit                                                                 
00015b01  xdc_runtime_System_exitStd__E                                        
00015b49  fdint_lockfd                                                         
00015b91  __aeabi_d2iz                                                         
00015bd9  ti_sysbios_family_arm_lm4_Timer_enableTimers__I                      
00015c21  ti_sysbios_family_arm_m3_Hwi_disableInterrupt__E                     
00015c21  ti_sysbios_hal_Hwi_HwiProxy_disableInterrupt__E                      
00015c21  ti_sysbios_hal_Hwi_disableInterrupt__E                               
00015c69  ti_sysbios_family_arm_m3_Hwi_enableInterrupt__E                      
00015c69  ti_sysbios_hal_Hwi_HwiProxy_enableInterrupt__E                       
00015c69  ti_sysbios_hal_Hwi_enableInterrupt__E                                
00015cb1  ti_sysbios_family_arm_m3_Hwi_excReserved__I                          
00015cf9  ti_sysbios_knl_Task_deleteTerminatedTasksFunc__I                     
00015d41  NtIfIdx2Ip                                                           
00015d87  RawEthSockSend                                                       
00015dcd  TcpPrCtlError                                                        
00015e13  mmZeroInit                                                           
00015e59  xdc_runtime_Core_assignParams__I                                     
00015ee5  HOSTclose                                                            
00015f29  HOSTunlink                                                           
00015f6d  ICMPChecksum                                                         
00015fb1  IPReasmFree                                                          
00015ff5  LLIGetValidTime                                                      
00016039  RouteMsg                                                             
0001607d  RtWalkEnd                                                            
000160c1  SockPcbDetach                                                        
00016105  SysCtlPeripheralReady                                                
000161d1  getdevice                                                            
00016215  llTimerGetTime                                                       
00016259  ti_sysbios_family_arm_lm4_Timer_isrStub__E                           
0001629d  ti_sysbios_heaps_HeapMem_Module_GateProxy_leave__E                   
000162a1  ti_sysbios_family_arm_m3_Hwi_getStackInfo__E                         
000162a1  ti_sysbios_hal_Hwi_HwiProxy_getStackInfo__E                          
000162a1  ti_sysbios_hal_Hwi_getStackInfo__E                                   
000162e5  ti_sysbios_knl_Clock_TimerProxy_getMaxTicks__E                       
000162e9  ti_sysbios_knl_Swi_post__E                                           
0001632d  xdc_runtime_Error_setX__E                                            
00016371  xdc_runtime_SysMin_flush__E                                          
00016371  xdc_runtime_System_SupportProxy_flush__E                             
00016371  xdc_runtime_System_flush__E                                          
000163b5  xdc_runtime_Text_xprintf__I                                          
000163f9  NDK_listen                                                           
0001643b  TcpPrSendOOB                                                         
0001647d  b64_encoded_size                                                     
000164bf  fdCloseSession                                                       
00016501  LLIValidateRoute                                                     
00016541  PBM_copy                                                             
00016581  ReadConfig                                                           
000165c1  ReadStatus                                                           
00016601  SockPcbRtChange                                                      
00016641  SysCtlPeripheralEnable                                               
00016681  TcpPrSend                                                            
000166c1  led_blink                                                            
00016701  __aeabi_uidiv                                                        
00016701  __aeabi_uidivmod                                                     
00016741  ti_sysbios_family_arm_lm4_Timer_startup__E                           
00016741  ti_sysbios_knl_Clock_TimerProxy_startup__E                           
00016781  ti_sysbios_heaps_HeapMem_Instance_init__E                            
000167c1  DHCPClose                                                            
0001683f  TaskCreate                                                           
0001687d  TcpPrDisconnect                                                      
000168f9  fdint_unlockfd                                                       
00016937  realloc                                                              
00016975  CfgEntryGetData                                                      
000169b1  EMACIntDisable                                                       
00016a29  RtWalkBegin                                                          
00016a65  TcpPrConnect                                                         
00016aa1  TcpSetPersist                                                        
00016b19  _RtNodeRemove                                                        
00016b55  _llTimerInit                                                         
00016bcd  ti_sysbios_knl_Queue_destruct                                        
00016bd1  ti_sysbios_family_arm_m3_Hwi_excSvCall__I                            
00016c0d  ti_sysbios_knl_Semaphore_delete                                      
00016c11  ti_sysbios_heaps_HeapMem_init__I                                     
00016c4d  ti_sysbios_knl_Semaphore_destruct                                    
00016c51  ti_sysbios_knl_Swi_restore__E                                        
00016c8d  EMACIntEnable                                                        
00016cc9  EMACConfigGet                                                        
00016d01  IPReasmTimeout                                                       
00016d39  NodeGetRt                                                            
00016d71  TcpClose                                                             
00016da9  TimerHSTick                                                          
00016de1  WriteEnable                                                          
00016e19  __TI_writemsg                                                        
00016e47  C$$IO$$                                                              
00016e51  dhcpBuildDiscover                                                    
00016e89  dhcpOptionsClear                                                     
00016ec1  fdint_waitevent                                                      
00016ef9  sscanf                                                               
00016f31  ti_sysbios_family_arm_m3_Hwi_excNoIsr__I                             
00016f69  ti_sysbios_knl_Clock_create                                          
00016fa1  ti_sysbios_knl_Task_processVitalTaskFlag__I                          
00016fd9  xdc_runtime_SysMin_putch__E                                          
00016fd9  xdc_runtime_System_SupportProxy_putch__E                             
00017011  xdc_runtime_System_atexit__E                                         
00017049  IPChecksum                                                           
000170b5  strncpy                                                              
000170ed  CfgSetService                                                        
00017121  EMACConfigSet                                                        
00017155  EMACIntClear                                                         
00017189  EMACSnow_emacPoll                                                    
000171bd  EMACSnow_isLinkUp                                                    
000171f1  EMAC_init                                                            
00017225  ExecClose                                                            
00017259  NIMUFindByName                                                       
0001728d  NIMUInit                                                             
000172c1  RawEthSockNotify                                                     
000172f5  SockPrCtlError                                                       
00017329  __TI_cleanup                                                         
0001735d  __TI_readmsg                                                         
000173c5  strstr                                                               
000173f9  ti_sysbios_family_arm_m3_Hwi_Instance_finalize__E                    
0001742d  ti_sysbios_knl_Swi_delete                                            
00017431  ti_sysbios_family_arm_m3_Hwi_excNmi__I                               
00017465  ti_sysbios_knl_Task_delete                                           
00017469  ti_sysbios_hal_Hwi_checkStack                                        
0001749d  ti_sysbios_knl_Semaphore_create                                      
000174d1  xdc_runtime_Core_assignLabel__I                                      
00017505  xdc_runtime_Text_printVisFxn__I                                      
00017539  CfgGetImmediate                                                      
0001756b  RtDeRef                                                              
0001759d  RtSetFailure                                                         
000175cf  SBFlush                                                              
00017601  SBSetMax                                                             
00017633  SockIntAbort                                                         
000176c9  f_close                                                              
000176fb  EMACRxDMADescriptorListSet                                           
00017701  ti_sysbios_hal_Hwi_initStack                                         
00017733  EMACTxDMADescriptorListSet                                           
00017739  ti_sysbios_knl_Semaphore_pendTimeout__I                              
0001776b  EMACAddrSet                                                          
000177cd  GlobalWriteProtectUnlock                                             
000177fd  LockBPR                                                              
0001782d  NS_PreBoot                                                           
0001785d  SockBind                                                             
0001788d  SockGetName                                                          
0001791d  dhcpPacketSend                                                       
0001794d  finddevice                                                           
0001797d  list_remove_node                                                     
000179dd  ti_sysbios_BIOS_atExitFunc__I                                        
00017a0d  xdc_runtime_Error_getMsg__E                                          
00017a11  ti_sysbios_family_arm_lm4_Timer_stop__E                              
00017a41  ti_sysbios_family_arm_m3_TaskSupport_start__E                        
00017a41  ti_sysbios_knl_Task_SupportProxy_start__E                            
00017a71  ti_sysbios_gates_GateHwi_Object__create__S                           
00017aa1  ti_sysbios_gates_GateMutex_Object__create__S                         
00017ad1  ti_sysbios_gates_GateMutex_enter__E                                  
00017b01  ti_sysbios_heaps_HeapMem_Object__create__S                           
00017b31  ti_sysbios_knl_Semaphore_construct                                   
00017b61  xdc_runtime_SysMin_abort__E                                          
00017b61  xdc_runtime_System_SupportProxy_abort__E                             
00017b91  xdc_runtime_System_processAtExit__E                                  
00017bc1  SBFree                                                               
00017bef  malloc                                                               
00017c1d  __aeabi_i2d                                                          
00017c4b  EMACIntStatus                                                        
00017c77  FdSignalEvent                                                        
00017ca5  IGMPTestGroup                                                        
00017cd1  NDK_hookCreate                                                       
00017d29  NIMUPacketServiceCheck                                               
00017d55  PipeClose                                                            
00017d81  SockPcbAttach                                                        
00017dad  TEST_spi_init                                                        
00017dd9  _LLIExpListRemove                                                    
00017e05  _LLITimeoutFlush                                                     
00017e31  _RtExpListRemove                                                     
00017e89  strncmp                                                              
00017eb5  ti_sysbios_knl_Clock_doTick__I                                       
00017ee1  ti_sysbios_knl_Queue_construct                                       
00017f0d  xdc_runtime_Error_getSite__E                                         
00017f11  ti_sysbios_knl_Task_restore__E                                       
00017f3d  remove                                                               
00017f3d  unlink                                                               
00017f69  xdc_runtime_Text_cordText__E                                         
00017f95  PBMQ_deq                                                             
00018067  xdc_runtime_System_putchar__I                                        
00018091  BindFindByNet                                                        
000180b9  LLIFree                                                              
000180e1  NC_SystemClose                                                       
00018109  NIMUCreatePacket                                                     
00018131  NIMUPacketService                                                    
000181d1  VLANInit                                                             
000181f9  dhcpPacketReceive                                                    
00018221  lseek                                                                
00018271  ti_sysbios_knl_Clock_addI__E                                         
00018299  ti_sysbios_knl_Swi_Module_startup__E                                 
000182c1  write                                                                
000182e9  CfgEntryInfo                                                         
0001830f  EMACPHYRead                                                          
00018335  EMACPHYWrite                                                         
0001835b  RawEthSockClose                                                      
000183cd  ti_ndk_config_udp_init                                               
000183f3  ti_sysbios_family_arm_m3_Hwi_pendSV__I                               
00018417  ti_sysbios_family_arm_m3_Hwi_return                                  
00018419  xdc_runtime_System_avprintf__E                                       
00018441  BindFindByHost                                                       
00018465  BindGetIFByDBCast                                                    
00018489  EMACSnow_pkt_service                                                 
000184d1  ExecTimer                                                            
000184f5  GPIOPinTypeEthernetLED                                               
00018519  GPIOPinTypeGPIOOutput                                                
0001853d  GPIOPinTypeSSI                                                       
00018561  NIMUFindByIndex                                                      
00018585  RTCAddHook                                                           
000185a9  RawEthSockPcbFind                                                    
000185f1  RtSetTimeout                                                         
00018615  SockPcbCleanup                                                       
00018639  TcpPrListen                                                          
0001865d  TcpTimeoutWait2                                                      
000186a5  memcmp                                                               
000186c9  ti_sysbios_BIOS_errorRaiseHook__I                                    
000186ed  ti_sysbios_BIOS_registerRTSLock__I                                   
00018711  ti_sysbios_BIOS_removeRTSLock__I                                     
00018735  ti_sysbios_BIOS_startFunc__I                                         
00018759  ti_sysbios_BIOS_RtsGateProxy_Object__delete__S                       
00018759  ti_sysbios_gates_GateMutex_Object__delete__S                         
00018759  ti_sysbios_heaps_HeapMem_Module_GateProxy_Object__delete__S          
0001877d  xdc_runtime_System_Module_GateProxy_enter__E                         
00018781  ti_sysbios_knl_Clock_Module_startup__E                               
000187a5  xdc_runtime_System_Module_GateProxy_leave__E                         
000187a9  ti_sysbios_knl_Semaphore_Instance_init__E                            
000187cd  ti_sysbios_knl_Semaphore_Object__delete__S                           
000187f1  ti_sysbios_knl_Task_restoreHwi__E                                    
00018815  user_disk_initialize                                                 
00018839  xdc_runtime_System_vprintf__E                                        
0001885d  CfgEntryRef                                                          
0001887f  GPIOIntStatus                                                        
000188a1  SSIDataGetNonBlocking                                                
00018909  ti_sysbios_family_arm_lm4_Timer_write__I                             
0001892b  xdc_runtime_SysMin_output__I                                         
0001894d  GPIOPinWrite                                                         
0001896d  NC_BootComplete                                                      
000189ad  RTCRemoveHook                                                        
000189cd  TcpTimeoutRemove                                                     
00018a0d  memchr                                                               
00018a2d  ti_sysbios_BIOS_rtsLock__I                                           
00018a4d  ti_sysbios_family_arm_m3_Hwi_Object__delete__S                       
00018a4d  ti_sysbios_hal_Hwi_HwiProxy_Object__delete__S                        
00018a6d  ti_sysbios_family_arm_m3_Hwi_excHandlerAsm__I                        
00018a8d  xdc_runtime_System_aprintf_va__F                                     
00018a91  ti_sysbios_family_arm_m3_Hwi_excHandler__I                           
00018ab1  ti_sysbios_gates_GateHwi_Object__delete__S                           
00018ab1  xdc_runtime_Main_Module_GateProxy_Object__delete__S                  
00018ab1  xdc_runtime_System_Module_GateProxy_Object__delete__S                
00018ad1  ti_sysbios_heaps_HeapMem_Object__delete__S                           
00018ad1  xdc_runtime_Memory_HeapProxy_Object__delete__S                       
00018af1  ti_sysbios_knl_Idle_run__E                                           
00018b11  ti_sysbios_knl_Semaphore_Object__destruct__S                         
00018b31  ti_sysbios_knl_Swi_Object__delete__S                                 
00018b51  ti_sysbios_knl_Task_Object__delete__S                                
00018b71  xdc_runtime_Registry_findById__E                                     
00018b91  xdc_runtime_SysMin_Module_startup__E                                 
00018bb1  SSIBusy                                                              
00018bcf  SSIIntStatus                                                         
00018bed  list_remove                                                          
00018c47  ti_sysbios_family_xxx_Hwi_switchAndRunFunc                           
00018c65  BindFindByIF                                                         
00018c81  Clock_Init                                                           
00018cb9  Led_Init                                                             
00018cd5  NDK_sprintf                                                          
00018cf1  NIMUAddHeader                                                        
00018d0d  SSIDataGet                                                           
00018d29  SockPrDetach                                                         
00018d45  TaskDestroy                                                          
00018d7d  memccpy                                                              
00018d99  ti_ndk_config_global_taskCreateHook                                  
00018db5  xdc_runtime_System_printf_va__F                                      
00018db9  ti_sysbios_gates_GateMutex_Instance_init__E                          
00018dd5  ti_sysbios_knl_Queue_Object__destruct__S                             
00018df1  ti_sysbios_knl_Queue_put__E                                          
00018e11  ti_sysbios_knl_Task_enter__I                                         
00018e2d  xdc_runtime_Error_raiseX__E                                          
00018e49  xdc_runtime_Memory_valloc__E                                         
00018e65  xdc_runtime_SysMin_exit__E                                           
00018e65  xdc_runtime_System_SupportProxy_exit__E                              
00018e81  xdc_runtime_System_abort__E                                          
00018e9d  BindGetIP                                                            
00018eb7  SSIDataPut                                                           
00018ed1  SockSetOOBMark                                                       
00018eeb  copysign                                                             
00018eeb  copysignl                                                            
00018f05  fdint_getfdt                                                         
00018f1f  free                                                                 
00018f1f  mem_Free                                                             
00018f39  ti_sysbios_family_arm_m3_Hwi_Handle__label__S                        
00018f39  ti_sysbios_hal_Hwi_HwiProxy_Handle__label__S                         
00018f53  ti_sysbios_gates_GateHwi_Handle__label__S                            
00018f53  xdc_runtime_Main_Module_GateProxy_Handle__label__S                   
00018f53  xdc_runtime_System_Module_GateProxy_Handle__label__S                 
00018f6d  ti_sysbios_BIOS_RtsGateProxy_Handle__label__S                        
00018f6d  ti_sysbios_gates_GateMutex_Handle__label__S                          
00018f6d  ti_sysbios_heaps_HeapMem_Module_GateProxy_Handle__label__S           
00018f87  ti_sysbios_heaps_HeapMem_Handle__label__S                            
00018f87  xdc_runtime_Memory_HeapProxy_Handle__label__S                        
00018fa1  ti_sysbios_knl_Swi_Handle__label__S                                  
00018fbb  ti_sysbios_knl_Task_Handle__label__S                                 
00018fd9  ti_sysbios_knl_Task_sleepTimeout__I                                  
00018ff3  xdc_runtime_System_aprintf__E                                        
0001900d  xdc_runtime_System_printf__E                                         
00019029  EMACSnow_emacSend                                                    
00019041  IPRtChange                                                           
00019059  RawEthSockPcbCleanup                                                 
00019149  TcpTimeoutAdd                                                        
00019161  _args_main                                                           
00019191  dhcpSocketClose                                                      
000191a9  list_add                                                             
000191c1  __aeabi_lmul                                                         
000191d9  strcmp                                                               
000191f1  strrchr                                                              
00019209  ti_sysbios_BIOS_rtsUnlock__I                                         
00019221  ti_sysbios_family_arm_lm4_Timer_Module__startupDone__F               
00019221  ti_sysbios_family_arm_lm4_Timer_Module__startupDone__S               
00019221  ti_sysbios_knl_Clock_TimerProxy_Module__startupDone__S               
00019239  ti_sysbios_family_arm_m3_Hwi_Module__startupDone__F                  
00019239  ti_sysbios_family_arm_m3_Hwi_Module__startupDone__S                  
00019239  ti_sysbios_hal_Hwi_HwiProxy_Module__startupDone__S                   
00019251  ti_sysbios_family_arm_m3_TaskSupport_swap__E                         
00019251  ti_sysbios_knl_Task_SupportProxy_swap__E                             
0001925d  ti_sysbios_knl_Task_swapReturn                                       
00019269  ti_sysbios_gates_GateMutex_leave__E                                  
00019281  xdc_runtime_Error_check__E                                           
00019299  xdc_runtime_System_exit__E                                           
000192b1  xdc_runtime_Text_ropeText__E                                         
000192c9  EMACReset                                                            
000192df  EMACRxEnable                                                         
000192f5  EMACTxEnable                                                         
0001930b  SSIEnable                                                            
00019321  fdint_freefdt                                                        
00019337  strchr                                                               
0001934d  ti_sysbios_BIOS_exitFunc__I                                          
0001938f  xdc_runtime_System_vsprintf__E                                       
000193a5  BindIPHost2IF                                                        
000193b9  FlashUserGet                                                         
000193cd  GPIOIntClear                                                         
000193e1  NC_NetStop                                                           
000193f5  NDK_hookExit                                                         
00019409  NIMUSendPacket                                                       
0001941d  NtRemoveNetwork                                                      
00019431  RawEthSockPcbInit                                                    
00019445  TimerFree                                                            
00019495  strcpy                                                               
000194a9  strlen                                                               
000194bd  ti_ndk_config_global_taskExitHook                                    
000194d1  ti_sysbios_family_arm_m3_Hwi_Object__get__S                          
000194e9  ti_sysbios_family_arm_m3_Hwi_switchFromBootStack__E                  
000194e9  ti_sysbios_hal_Hwi_HwiProxy_switchFromBootStack__E                   
000194e9  ti_sysbios_hal_Hwi_switchFromBootStack__E                            
000194fd  ti_sysbios_heaps_HeapMem_Object__get__S                              
00019511  ti_sysbios_knl_Swi_Object__get__S                                    
00019525  ti_sysbios_knl_Task_Object__first__S                                 
00019539  ti_sysbios_knl_Task_Object__next__S                                  
0001954d  wait                                                                 
00019561  SockPrAttach                                                         
00019573  SockSetOOBData                                                       
00019599  ti_sysbios_hal_Hwi_Module_startup__E                                 
000195ab  SysCtlDelay                                                          
000195b1  ti_sysbios_knl_Semaphore_reset__E                                    
000195c3  wcslen                                                               
000195d5  xdc_runtime_Startup_exec__I                                          
000195e9  ti_catalog_arm_cortexm4_tiva_ce_Boot_init__I                         
000195f9  BindIF2IPHost                                                        
00019609  BindIFNet2IPHost                                                     
00019619  EMACFrameFilterSet                                                   
00019629  ExecHRef                                                             
00019639  NC_IPUpdate                                                          
00019649  NIMUGetRsvdSizeInfo                                                  
00019669  ti_sysbios_BIOS_getCpuFreq__E                                        
00019679  ti_sysbios_BIOS_setThreadType__E                                     
00019689  osi_start                                                            
00019689  ti_sysbios_BIOS_start__E                                             
00019699  ti_sysbios_family_arm_m3_TaskSupport_glue                            
000196a9  ti_sysbios_gates_GateMutex_Instance_finalize__E                      
000196b9  ti_sysbios_knl_Semaphore_Instance_finalize__E                        
000196c9  ti_sysbios_knl_Swi_disable__E                                        
000196d9  ti_sysbios_knl_Task_Object__get__S                                   
000196e9  osi_TaskDisable                                                      
000196e9  ti_sysbios_knl_Task_disable__E                                       
000196f9  xdc_runtime_Gate_leaveSystem__E                                      
00019709  xdc_runtime_Memory_free__E                                           
00019719  xdc_runtime_SysMin_ready__E                                          
00019719  xdc_runtime_System_SupportProxy_ready__E                             
00019729  xdc_runtime_System_vsnprintf__E                                      
00019739  xdc_runtime_Text_visitRope__I                                        
00019749  EMACSnow_emacioctl                                                   
00019757  ExecLowResource                                                      
00019765  __TI_decompress_none                                                 
00019773  TcpPrRecv                                                            
00019779  ti_sysbios_knl_Idle_loop__E                                          
00019789  ti_sysbios_knl_Queue_empty__E                                        
00019799  BindGetFirst                                                         
000197a5  CfgSetDefault                                                        
000197b1  EMACSnow_init                                                        
000197bd  NDK_hookInit                                                         
000197c9  NIMUSetRsvdSizeInfo                                                  
000197d5  NotifyLowResource                                                    
000197e1  PBM_close                                                            
000197ed  SemDelete                                                            
000197f9  _llTimerShutdown                                                     
00019805  _register_lock                                                       
00019811  _register_unlock                                                     
00019829  __TI_zero_init                                                       
00019835  llTimerGetStartTime                                                  
00019841  ti_sysbios_BIOS_getThreadType__E                                     
00019851  ti_sysbios_family_arm_lm4_Timer_getMaxTicks__E                       
0001985d  ti_sysbios_family_arm_m3_Hwi_Params__init__S                         
0001985d  ti_sysbios_hal_Hwi_HwiProxy_Params__init__S                          
00019869  OEMSysCritOn                                                         
00019869  ti_sysbios_family_arm_m3_Hwi_disableFxn__E                           
00019869  ti_sysbios_hal_Hwi_HwiProxy_disable__E                               
00019879  ti_sysbios_family_arm_m3_TaskSupport_checkStack__E                   
00019879  ti_sysbios_knl_Task_SupportProxy_checkStack__E                       
00019889  ti_sysbios_family_arm_m3_TaskSupport_getStackAlignment__E            
00019889  ti_sysbios_knl_Task_SupportProxy_getStackAlignment__E                
00019899  ti_sysbios_gates_GateHwi_enter__E                                    
000198a5  ti_sysbios_knl_Clock_Params__init__S                                 
000198b1  ti_sysbios_knl_Clock_getTicks__E                                     
000198bd  ti_sysbios_knl_Queue_Object__get__S                                  
000198c9  ti_sysbios_knl_Semaphore_Params__init__S                             
000198d5  ti_sysbios_knl_Task_Params__init__S                                  
000198e1  ti_sysbios_knl_Task_getIdleTask__E                                   
000198f1  ti_sysbios_knl_Task_self__E                                          
000198fd  xdc_runtime_Error_init__E                                            
00019909  xdc_runtime_Gate_enterSystem__E                                      
00019915  xdc_runtime_Memory_calloc__E                                         
00019921  xdc_runtime_Memory_getMaxDefaultTypeAlign__E                         
0001992d  fdint_signalevent                                                    
00019937  fdint_signaltimeout                                                  
00019941  xdc_runtime_Memory_HeapProxy_alloc__E                                
0001994b  xdc_runtime_Memory_HeapProxy_free__E                                 
00019955  EK_TM4C1294XL_initGPIO                                               
0001995d  EMACTxDMAPollDemand                                                  
0001996d  TaskBlock                                                            
00019975  __aeabi_errno_addr                                                   
00019985  ti_sysbios_family_arm_lm4_Timer_masterDisable__I                     
00019991  ti_sysbios_family_arm_m3_Hwi_doSwiRestore__I                         
00019999  ti_sysbios_family_arm_m3_Hwi_startup__E                              
00019999  ti_sysbios_hal_Hwi_HwiProxy_startup__E                               
00019999  ti_sysbios_hal_Hwi_startup__E                                        
000199a1  ti_sysbios_knl_Task_getHookContext__E                                
000199a9  ti_sysbios_knl_Task_setHookContext__E                                
000199b1  __xdc__init                                                          
000199b9  ti_sysbios_family_arm_m3_Hwi_doTaskRestore__I                        
000199c1  OEMSysCritOff                                                        
000199c1  ti_sysbios_family_arm_m3_Hwi_restoreFxn__E                           
000199c1  ti_sysbios_hal_Hwi_HwiProxy_restore__E                               
000199c9  ti_sysbios_gates_GateHwi_leave__E                                    
000199d1  ti_sysbios_heaps_HeapMem_isBlocking__E                               
000199d9  ti_sysbios_knl_Queue_Instance_init__E                                
000199e1  ti_sysbios_knl_Swi_startup__E                                        
000199e7  xdc_runtime_System_Module_startup__E                                 
000199f1  ti_sysbios_gates_GateHwi_query__E                                    
000199f1  xdc_runtime_Main_Module_GateProxy_query__E                           
000199f1  xdc_runtime_System_Module_GateProxy_query__E                         
000199f9  ti_sysbios_BIOS_RtsGateProxy_query__E                                
000199f9  ti_sysbios_gates_GateMutex_query__E                                  
000199f9  ti_sysbios_heaps_HeapMem_Module_GateProxy_query__E                   
00019a01  ti_sysbios_knl_Task_startup__E                                       
00019a09  ti_sysbios_gates_GateHwi_Instance_init__E                            
00019a11  ti_sysbios_knl_Clock_logTick__E                                      
00019a19  ti_sysbios_knl_Swi_Instance_finalize__E                              
00028110  xdc_runtime_Text_charTab__A                                          
0002a0be  ti_catalog_arm_cortexm4_tiva_ce_Boot_Module__id__C                   
0002a3e6  ti_sysbios_family_arm_m3_Hwi_Module__id__C                           
0002a508  _ctypes_                                                             
0002a60a  xdc_runtime_Text_nodeTab__A                                          
0002a6de  ti_sysbios_hal_Hwi_Module__id__C                                     
0002a7ac  ti_catalog_arm_cortexm4_tiva_ce_Boot_A_mustNotUseEnhancedClockMode__C
0002aba0  Code2Err                                                             
0002ac7d  xdc_runtime_Error_policy__C                                          
0002ac7e  ti_sysbios_heaps_HeapMem_Module__id__C                               
0002acbe  ti_sysbios_knl_Task_Module__id__C                                    
0002acc0  ti_sysbios_knl_Task_Object__PARAMS__C                                
0002ad5c  ti_sysbios_family_arm_m3_Hwi_Object__PARAMS__C                       
0002ad8c  ti_sysbios_heaps_HeapMem_Module__FXNS__C                             
0002adb4  ti_sysbios_knl_Swi_Object__PARAMS__C                                 
0002addc  ti_sysbios_gates_GateHwi_Module__FXNS__C                             
0002ae00  ti_sysbios_gates_GateMutex_Module__FXNS__C                           
0002ae24  ti_sysbios_heaps_HeapMem_Object__PARAMS__C                           
0002ae48  ti_sysbios_knl_Clock_Object__PARAMS__C                               
0002ae6c  ti_sysbios_knl_Semaphore_Object__PARAMS__C                           
0002ae90  ti_sysbios_family_arm_m3_Hwi_Object__DESC__C                         
0002aeb0  ti_sysbios_gates_GateHwi_Object__DESC__C                             
0002aed0  ti_sysbios_gates_GateMutex_Object__DESC__C                           
0002aef0  ti_sysbios_heaps_HeapMem_Object__DESC__C                             
0002af10  ti_sysbios_knl_Clock_Object__DESC__C                                 
0002af30  ti_sysbios_knl_Queue_Object__DESC__C                                 
0002af50  ti_sysbios_knl_Semaphore_Object__DESC__C                             
0002af70  ti_sysbios_knl_Swi_Object__DESC__C                                   
0002af90  ti_sysbios_knl_Task_Object__DESC__C                                  
0002afb0  xdc_runtime_Startup_sfxnTab__A                                       
0002afd0  EMAC_config                                                          
0002b000  ti_ndk_config_Global_rawPageSize                                     
0002b004  ti_ndk_config_Global_rawPageCount                                    
0002b008  ti_ndk_config_Global_smallest                                        
0002b00c  ti_ndk_config_Global_largest                                         
0002b010  ti_ndk_config_Global_numFrameBuf                                     
0002b014  ti_ndk_config_Global_sizeFrameBuf                                    
0002b018  ti_sysbios_gates_GateHwi_Object__PARAMS__C                           
0002b030  ti_sysbios_gates_GateMutex_Object__PARAMS__C                         
0002b048  ti_sysbios_knl_Queue_Object__PARAMS__C                               
0002b060  ti_sysbios_knl_Task_hooks__A                                         
0002b078  GPIOTiva_config                                                      
0002b08c  xdc_runtime_Startup_firstFxns__A                                     
0002b0b0  emacHWAttrs                                                          
0002b0c0  xdc_runtime_Startup_sfxnRts__A                                       
0002b0f0  EMACSnow_fxnTable                                                    
0002b100  ti_sysbios_family_arm_m3_Hwi_excHookFuncs__A                         
0002b108  ti_sysbios_knl_Idle_funcList__A                                      
0002b110  ti_sysbios_knl_Idle_funcList__C                                      
0002b118  ti_sysbios_knl_Task_hooks__C                                         
0002b120  xdc_runtime_Startup_firstFxns__C                                     
0002b128  xdc_runtime_Startup_lastFxns__C                                      
0002b130  ti_catalog_arm_cortexm4_tiva_ce_Boot_Module__diagsEnabled__C         
0002b134  ti_catalog_arm_cortexm4_tiva_ce_Boot_Module__diagsIncluded__C        
0002b138  ti_catalog_arm_cortexm4_tiva_ce_Boot_Module__diagsMask__C            
0002b13c  ti_sysbios_family_arm_lm4_Timer_enableFunc__C                        
0002b140  ti_sysbios_family_arm_lm4_Timer_numTimerDevices__C                   
0002b144  ti_sysbios_family_arm_lm4_Timer_startupNeeded__C                     
0002b148  ti_sysbios_family_arm_m3_Hwi_E_NMI__C                                
0002b14c  ti_sysbios_family_arm_m3_Hwi_E_alreadyDefined__C                     
0002b150  ti_sysbios_family_arm_m3_Hwi_E_busFault__C                           
0002b154  ti_sysbios_family_arm_m3_Hwi_E_debugMon__C                           
0002b158  ti_sysbios_family_arm_m3_Hwi_E_hardFault__C                          
0002b15c  ti_sysbios_family_arm_m3_Hwi_E_memFault__C                           
0002b160  ti_sysbios_family_arm_m3_Hwi_E_noIsr__C                              
0002b164  ti_sysbios_family_arm_m3_Hwi_E_reserved__C                           
0002b168  ti_sysbios_family_arm_m3_Hwi_E_svCall__C                             
0002b16c  ti_sysbios_family_arm_m3_Hwi_E_usageFault__C                         
0002b170  ti_sysbios_family_arm_m3_Hwi_NUM_INTERRUPTS__C                       
0002b174  ti_sysbios_family_arm_m3_Hwi_Object__count__C                        
0002b178  ti_sysbios_family_arm_m3_Hwi_ccr__C                                  
0002b17c  ti_sysbios_family_arm_m3_Hwi_excHandlerFunc__C                       
0002b180  ti_sysbios_family_arm_m3_Hwi_excHookFuncs__C                         
0002b184  ti_sysbios_family_arm_m3_Hwi_nullIsrFunc__C                          
0002b188  ti_sysbios_family_arm_m3_Hwi_priGroup__C                             
0002b18c  ti_sysbios_family_arm_m3_TaskSupport_stackAlignment__C               
0002b190  ti_sysbios_gates_GateMutex_Instance_State_sem__O                     
0002b194  ti_sysbios_hal_Hwi_E_stackOverflow__C                                
0002b198  ti_sysbios_heaps_HeapMem_E_memory__C                                 
0002b19c  ti_sysbios_heaps_HeapMem_Module__gateObj__C                          
0002b1a0  ti_sysbios_heaps_HeapMem_Object__count__C                            
0002b1a4  ti_sysbios_heaps_HeapMem_reqAlign__C                                 
0002b1a8  ti_sysbios_knl_Clock_Module_State_clockQ__O                          
0002b1ac  ti_sysbios_knl_Clock_tickPeriod__C                                   
0002b1b0  ti_sysbios_knl_Semaphore_Instance_State_pendQ__O                     
0002b1b4  ti_sysbios_knl_Swi_Object__count__C                                  
0002b1b8  ti_sysbios_knl_Task_E_deleteNotAllowed__C                            
0002b1bc  ti_sysbios_knl_Task_E_spOutOfBounds__C                               
0002b1c0  ti_sysbios_knl_Task_E_stackOverflow__C                               
0002b1c4  ti_sysbios_knl_Task_Module_State_inactiveQ__O                        
0002b1c8  ti_sysbios_knl_Task_Module_State_terminatedQ__O                      
0002b1cc  ti_sysbios_knl_Task_Object__count__C                                 
0002b1d0  ti_sysbios_knl_Task_Object__heap__C                                  
0002b1d4  ti_sysbios_knl_Task_allBlockedFunc__C                                
0002b1d8  ti_sysbios_knl_Task_defaultStackHeap__C                              
0002b1dc  ti_sysbios_knl_Task_defaultStackSize__C                              
0002b1e0  ti_sysbios_knl_Task_numConstructedTasks__C                           
0002b1e4  xdc_runtime_Assert_E_assertFailed__C                                 
0002b1e8  xdc_runtime_Core_A_initializedParams__C                              
0002b1ec  xdc_runtime_Core_Module__diagsEnabled__C                             
0002b1f0  xdc_runtime_Core_Module__diagsIncluded__C                            
0002b1f4  xdc_runtime_Core_Module__diagsMask__C                                
0002b1f8  xdc_runtime_Error_E_memory__C                                        
0002b1fc  xdc_runtime_Error_Module__diagsEnabled__C                            
0002b200  xdc_runtime_Error_Module__diagsIncluded__C                           
0002b204  xdc_runtime_Error_Module__diagsMask__C                               
0002b208  xdc_runtime_Error_Module__loggerFxn8__C                              
0002b20c  xdc_runtime_Error_Module__loggerObj__C                               
0002b210  xdc_runtime_Error_policyFxn__C                                       
0002b214  xdc_runtime_Error_raiseHook__C                                       
0002b218  xdc_runtime_IGateProvider_Interface__BASE__C                         
0002b21c  xdc_runtime_IHeap_Interface__BASE__C                                 
0002b220  xdc_runtime_IModule_Interface__BASE__C                               
0002b224  xdc_runtime_Log_L_error__C                                           
0002b228  xdc_runtime_Memory_defaultHeapInstance__C                            
0002b22c  xdc_runtime_Startup_execImpl__C                                      
0002b230  xdc_runtime_Startup_maxPasses__C                                     
0002b234  xdc_runtime_Startup_sfxnRts__C                                       
0002b238  xdc_runtime_Startup_sfxnTab__C                                       
0002b23c  xdc_runtime_SysMin_bufSize__C                                        
0002b240  xdc_runtime_SysMin_outputFunc__C                                     
0002b244  xdc_runtime_System_Module__gateObj__C                                
0002b248  xdc_runtime_System_abortFxn__C                                       
0002b24c  xdc_runtime_System_exitFxn__C                                        
0002b250  xdc_runtime_System_extendFxn__C                                      
0002b254  xdc_runtime_System_maxAtexitHandlers__C                              
0002b258  xdc_runtime_Text_charTab__C                                          
0002b25c  xdc_runtime_Text_nameEmpty__C                                        
0002b260  xdc_runtime_Text_nameStatic__C                                       
0002b264  xdc_runtime_Text_nameUnknown__C                                      
0002b268  xdc_runtime_Text_nodeTab__C                                          
0002b26c  xdc_runtime_Text_visitRopeFxn__C                                     
0002b270  xdc_runtime_Core_Module__id__C                                       
0002b272  xdc_runtime_Error_Module__loggerDefined__C                           
0002b274  xdc_runtime_Error_maxDepth__C                                        
0002b276  xdc_runtime_Memory_Module__id__C                                     
0002b278  xdc_runtime_SysMin_flushAtExit__C                                    
0002b27a  xdc_runtime_Text_charCnt__C                                          
0002b27c  xdc_runtime_Text_isLoaded__C                                         
0002b27e  xdc_runtime_Text_registryModsLastId__C                               
0002b280  xdc_runtime_Text_unnamedModsLastId__C                                
0002b288  __TI_static_base__                                                   
0002b664  __TI_Handler_Table_Base                                              
0002b670  __TI_Handler_Table_Limit                                             
0002b680  __TI_CINIT_Base                                                      
0002b698  __TI_CINIT_Limit                                                     
20000000  __start___llvm_prf_cnts                                              
20000000  __stop___llvm_prf_cnts                                               
20000000  ti_sysbios_family_arm_m3_Hwi_ramVectors                              
20000380  ti_sysbios_heaps_HeapMem_Instance_State_0_buf__A                     
2000cb80  ti_ndk_config_Global_pit                                             
2000cc28  ti_ndk_config_Global_pitBuffer                                       
20011428  _ICMPIn                                                              
20011474  PBMQ_free                                                            
20011480  ti_ndk_config_Global_pBufMem                                         
20015080  ti_ndk_config_Global_pHdrMem                                         
20015378  fs                                                                   
200163ac  file                                                                 
200173d8  ti_sysbios_knl_Task_Instance_State_0_stack__A                        
200179d8  ti_sysbios_knl_Task_Instance_State_1_stack__A                        
20017bd8  ti_sysbios_family_arm_m3_Hwi_dispatchTable                           
20018138  __CIOBUF_                                                            
20018358  tcps                                                                 
200184c4  __TI_tmpnams                                                         
20018714  xdc_runtime_SysMin_Module_State_0_outbuf__A                          
20018794  ips                                                                  
200187fc  nimu_mcb                                                             
20018860  _ICMPOut                                                             
200188ec  vlan_mcb                                                             
20018938  udps                                                                 
2001895c  BlockCount                                                           
20018978  BlockMax                                                             
20018994  PageCount                                                            
200189b0  PageMax                                                              
200189cc  stkEvent                                                             
20018a08  raweths                                                              
20018a18  raws                                                                 
20018a28  tpseudo                                                              
20018a34  upseudo                                                              
20018a40  emacObjects                                                          
20018a48  parmbuf                                                              
20018a74  _IGMPInDiscard                                                       
20018a78  _IGMPInQuery                                                         
20018a7c  _IGMPInQueryGroup                                                    
20018a80  _IGMPInResponse                                                      
20018a84  _IGMPOutResponse                                                     
20018a88  br                                                                   
20018a8c  bw                                                                   
20018a90  g_ulStatus                                                           
20018aa4  raweth_pcb                                                           
20018aa8  ti_sysbios_knl_Task_Instance_State_0_hookEnv__A                      
20018aac  ti_sysbios_knl_Task_Instance_State_1_hookEnv__A                      
20018ab0  ui32SysClock                                                         
20018ab8  _ftable                                                              
20018ba8  _ipcfg                                                               
20018c5c  ti_sysbios_knl_Task_Object__table__V                                 
20018cf4  ti_sysbios_knl_Swi_Module_State_0_readyQ__A                          
20018d74  ti_sysbios_knl_Task_Module_State_0_readyQ__A                         
20018df4  _device                                                              
20018e6c  _stream                                                              
20018f0a  ti_sysbios_family_arm_m3_Hwi_Module_State_0_excActive__A             
20018f0c  ti_sysbios_knl_Task_Module__state__V                                 
20018fd0  ti_sysbios_family_arm_lm4_Timer_Module_State_0_device__A             
20019010  ti_sysbios_family_arm_lm4_Timer_Object__table__V                     
20019050  ti_sysbios_gates_GateMutex_Object__table__V                          
200190bc  ti_sysbios_family_arm_m3_Hwi_Module__state__V                        
200190f0  enablePrefetch                                                       
200190f4  phyCounter                                                           
20019122  xdc_runtime_Error_Module__state__V                                   
20019154  ti_sysbios_knl_Swi_Object__table__V                                  
20019184  ti_sysbios_knl_Clock_Module__state__V                                
200191b0  pstrMsgName                                                          
200191d8  _oscfg                                                               
200191fc  PITCount                                                             
20019200  PITUsed                                                              
20019204  PITHigh                                                              
20019220  ti_sysbios_BIOS_Module__state__V                                     
20019244  ti_sysbios_family_arm_lm4_Timer_Module_State_0_handles__A            
20019280  ti_ndk_config_Global_Id2Size                                         
2001929c  ti_sysbios_knl_Swi_Module__state__V                                  
20019300  ti_sysbios_family_arm_m3_Hwi_Object__table__V                        
20019318  ti_sysbios_heaps_HeapMem_Object__table__V                            
2001936c  gpioPinConfigs                                                       
2001937c  __TI_ft_end                                                          
20019380  __aeabi_stdin                                                        
20019384  __aeabi_stdout                                                       
20019388  __aeabi_stderr                                                       
20019394  _IGMPForceVersion1                                                   
2001939c  __TI_cleanup_ptr                                                     
200193a0  __TI_dtors_ptr                                                       
200193a4  __TI_enable_exit_profile_output                                      
200193a8  ti_sysbios_family_arm_lm4_Timer_Module__state__V                     
200193b4  xdc_runtime_SysMin_Module__state__V                                  
200193cc  _lock                                                                
200193d0  _unlock                                                              
200193d4  NIMUDeviceTable                                                      
200193dc  gpioCallbackFunctions                                                
200193f4  _ICMPInErrors                                                        
200193f8  _ICMPOutErrors                                                       
200193fc  _IPExecuting                                                         
20019414  tcp_iss                                                              
20019418  ptTimeFirst                                                          
20019424  ti_ndk_config_Global_HostName                                        
20019428  __xdc__init__addr                                                    
2001942c  ti_sysbios_family_arm_m3_Hwi_Module__root__V                         
20019434  ti_sysbios_gates_GateHwi_Module__root__V                             
2001943c  ti_sysbios_gates_GateMutex_Module__root__V                           
20019444  ti_sysbios_heaps_HeapMem_Module__root__V                             
2001944c  ti_sysbios_knl_Clock_Module__root__V                                 
20019454  ti_sysbios_knl_Queue_Module__root__V                                 
2001945c  ti_sysbios_knl_Semaphore_Module__root__V                             
20019464  ti_sysbios_knl_Swi_Module__root__V                                   
2001946c  ti_sysbios_knl_Task_Module__root__V                                  
20019474  xdc_runtime_Registry_Module__state__V                                
2001947c  xdc_runtime_Startup_Module__state__V                                 
20019484  xdc_runtime_System_Module_State_0_atexitHandlers__A                  
2001948c  xdc_runtime_System_Module__state__V                                  
20019494  macAddress                                                           
200194b4  errno                                                                
200194b8  main_func_sp                                                         
200194c4  _IPReasmPtr                                                          
200194d4  ti_sysbios_family_arm_m3_Hwi_Module_State_0_excContext__A            
200194d8  ti_sysbios_family_arm_m3_Hwi_Module_State_0_excStack__A              
200194dc  ti_sysbios_gates_GateHwi_Object__table__V                            
200194e0  ti_sysbios_knl_Task_Module_State_0_idleTask__A                       
200194e4  xdc_runtime_Memory_Module__state__V                                  
200194e8  __stack                                                              
20019ce8  __STACK_END                                                          
e000e000  ti_sysbios_family_arm_m3_Hwi_nvic                                    
ffffffff  __TI_pprof_out_hndl                                                  
ffffffff  __TI_prof_data_size                                                  
ffffffff  __TI_prof_data_start                                                 
ffffffff  __binit__                                                            
ffffffff  __c_args__                                                           
ffffffff  binit                                                                
UNDEFED   SHT$$INIT_ARRAY$$Base                                                
UNDEFED   SHT$$INIT_ARRAY$$Limit                                               

[1117 symbols]
